ARM GAS  C:\Users\Parthiv\AppData\Local\Temp\ccbTTDig.s 			page 1


   1              		.cpu cortex-m0
   2              		.fpu softvfp
   3              		.eabi_attribute 20, 1
   4              		.eabi_attribute 21, 1
   5              		.eabi_attribute 23, 3
   6              		.eabi_attribute 24, 1
   7              		.eabi_attribute 25, 1
   8              		.eabi_attribute 26, 1
   9              		.eabi_attribute 30, 1
  10              		.eabi_attribute 34, 0
  11              		.eabi_attribute 18, 4
  12              		.code	16
  13              		.file	"cyfitter_cfg.c"
  14              		.text
  15              	.Ltext0:
  16              		.cfi_sections	.debug_frame
  17              		.section	.text.cfg_write_bytes32,"ax",%progbits
  18              		.align	2
  19              		.code	16
  20              		.thumb_func
  21              		.type	cfg_write_bytes32, %function
  22              	cfg_write_bytes32:
  23              	.LFB5:
  24              		.file 1 ".\\Generated_Source\\PSoC4\\cyfitter_cfg.c"
   1:.\Generated_Source\PSoC4/cyfitter_cfg.c **** /*******************************************************************************
   2:.\Generated_Source\PSoC4/cyfitter_cfg.c **** * File Name: cyfitter_cfg.c
   3:.\Generated_Source\PSoC4/cyfitter_cfg.c **** * 
   4:.\Generated_Source\PSoC4/cyfitter_cfg.c **** * PSoC Creator  3.3 CP3
   5:.\Generated_Source\PSoC4/cyfitter_cfg.c **** *
   6:.\Generated_Source\PSoC4/cyfitter_cfg.c **** * Description:
   7:.\Generated_Source\PSoC4/cyfitter_cfg.c **** * This file contains device initialization code.
   8:.\Generated_Source\PSoC4/cyfitter_cfg.c **** * Except for the user defined sections in CyClockStartupError(), this file should not be modified.
   9:.\Generated_Source\PSoC4/cyfitter_cfg.c **** * This file is automatically generated by PSoC Creator.
  10:.\Generated_Source\PSoC4/cyfitter_cfg.c **** *
  11:.\Generated_Source\PSoC4/cyfitter_cfg.c **** ********************************************************************************
  12:.\Generated_Source\PSoC4/cyfitter_cfg.c **** * Copyright (c) 2007-2016 Cypress Semiconductor.  All rights reserved.
  13:.\Generated_Source\PSoC4/cyfitter_cfg.c **** * You may use this file only in accordance with the license, terms, conditions, 
  14:.\Generated_Source\PSoC4/cyfitter_cfg.c **** * disclaimers, and limitations in the end user license agreement accompanying 
  15:.\Generated_Source\PSoC4/cyfitter_cfg.c **** * the software package with which this file was provided.
  16:.\Generated_Source\PSoC4/cyfitter_cfg.c **** ********************************************************************************/
  17:.\Generated_Source\PSoC4/cyfitter_cfg.c **** 
  18:.\Generated_Source\PSoC4/cyfitter_cfg.c **** #include <string.h>
  19:.\Generated_Source\PSoC4/cyfitter_cfg.c **** #include "cytypes.h"
  20:.\Generated_Source\PSoC4/cyfitter_cfg.c **** #include "cydevice_trm.h"
  21:.\Generated_Source\PSoC4/cyfitter_cfg.c **** #include "cyfitter.h"
  22:.\Generated_Source\PSoC4/cyfitter_cfg.c **** #include "CyLib.h"
  23:.\Generated_Source\PSoC4/cyfitter_cfg.c **** #include "CyLFClk.h"
  24:.\Generated_Source\PSoC4/cyfitter_cfg.c **** #include "cyfitter_cfg.h"
  25:.\Generated_Source\PSoC4/cyfitter_cfg.c **** 
  26:.\Generated_Source\PSoC4/cyfitter_cfg.c **** 
  27:.\Generated_Source\PSoC4/cyfitter_cfg.c **** #if defined(__GNUC__) || defined(__ARMCC_VERSION)
  28:.\Generated_Source\PSoC4/cyfitter_cfg.c ****     #define CYPACKED 
  29:.\Generated_Source\PSoC4/cyfitter_cfg.c ****     #define CYPACKED_ATTR __attribute__ ((packed))
  30:.\Generated_Source\PSoC4/cyfitter_cfg.c ****     #define CYALIGNED __attribute__ ((aligned))
  31:.\Generated_Source\PSoC4/cyfitter_cfg.c ****     #define CY_CFG_UNUSED __attribute__ ((unused))
  32:.\Generated_Source\PSoC4/cyfitter_cfg.c ****     #ifndef CY_CFG_SECTION
  33:.\Generated_Source\PSoC4/cyfitter_cfg.c ****         #define CY_CFG_SECTION __attribute__ ((section(".psocinit")))
ARM GAS  C:\Users\Parthiv\AppData\Local\Temp\ccbTTDig.s 			page 2


  34:.\Generated_Source\PSoC4/cyfitter_cfg.c ****     #endif
  35:.\Generated_Source\PSoC4/cyfitter_cfg.c ****     
  36:.\Generated_Source\PSoC4/cyfitter_cfg.c ****     #if defined(__ARMCC_VERSION)
  37:.\Generated_Source\PSoC4/cyfitter_cfg.c ****         #define CY_CFG_MEMORY_BARRIER() __memory_changed()
  38:.\Generated_Source\PSoC4/cyfitter_cfg.c ****     #else
  39:.\Generated_Source\PSoC4/cyfitter_cfg.c ****         #define CY_CFG_MEMORY_BARRIER() __sync_synchronize()
  40:.\Generated_Source\PSoC4/cyfitter_cfg.c ****     #endif
  41:.\Generated_Source\PSoC4/cyfitter_cfg.c ****     
  42:.\Generated_Source\PSoC4/cyfitter_cfg.c **** #elif defined(__ICCARM__)
  43:.\Generated_Source\PSoC4/cyfitter_cfg.c ****     #include <intrinsics.h>
  44:.\Generated_Source\PSoC4/cyfitter_cfg.c **** 
  45:.\Generated_Source\PSoC4/cyfitter_cfg.c ****     #define CYPACKED __packed
  46:.\Generated_Source\PSoC4/cyfitter_cfg.c ****     #define CYPACKED_ATTR 
  47:.\Generated_Source\PSoC4/cyfitter_cfg.c ****     #define CYALIGNED _Pragma("data_alignment=4")
  48:.\Generated_Source\PSoC4/cyfitter_cfg.c ****     #define CY_CFG_UNUSED _Pragma("diag_suppress=Pe177")
  49:.\Generated_Source\PSoC4/cyfitter_cfg.c ****     #define CY_CFG_SECTION _Pragma("location=\".psocinit\"")
  50:.\Generated_Source\PSoC4/cyfitter_cfg.c ****     
  51:.\Generated_Source\PSoC4/cyfitter_cfg.c ****     #define CY_CFG_MEMORY_BARRIER() __DMB()
  52:.\Generated_Source\PSoC4/cyfitter_cfg.c ****     
  53:.\Generated_Source\PSoC4/cyfitter_cfg.c **** #else
  54:.\Generated_Source\PSoC4/cyfitter_cfg.c ****     #error Unsupported toolchain
  55:.\Generated_Source\PSoC4/cyfitter_cfg.c **** #endif
  56:.\Generated_Source\PSoC4/cyfitter_cfg.c **** 
  57:.\Generated_Source\PSoC4/cyfitter_cfg.c **** 
  58:.\Generated_Source\PSoC4/cyfitter_cfg.c **** CY_CFG_UNUSED
  59:.\Generated_Source\PSoC4/cyfitter_cfg.c **** static void CYMEMZERO(void *s, size_t n);
  60:.\Generated_Source\PSoC4/cyfitter_cfg.c **** CY_CFG_UNUSED
  61:.\Generated_Source\PSoC4/cyfitter_cfg.c **** static void CYMEMZERO(void *s, size_t n)
  62:.\Generated_Source\PSoC4/cyfitter_cfg.c **** {
  63:.\Generated_Source\PSoC4/cyfitter_cfg.c **** 	(void)memset(s, 0, n);
  64:.\Generated_Source\PSoC4/cyfitter_cfg.c **** }
  65:.\Generated_Source\PSoC4/cyfitter_cfg.c **** CY_CFG_UNUSED
  66:.\Generated_Source\PSoC4/cyfitter_cfg.c **** static void CYCONFIGCPY(void *dest, const void *src, size_t n);
  67:.\Generated_Source\PSoC4/cyfitter_cfg.c **** CY_CFG_UNUSED
  68:.\Generated_Source\PSoC4/cyfitter_cfg.c **** static void CYCONFIGCPY(void *dest, const void *src, size_t n)
  69:.\Generated_Source\PSoC4/cyfitter_cfg.c **** {
  70:.\Generated_Source\PSoC4/cyfitter_cfg.c **** 	(void)memcpy(dest, src, n);
  71:.\Generated_Source\PSoC4/cyfitter_cfg.c **** }
  72:.\Generated_Source\PSoC4/cyfitter_cfg.c **** CY_CFG_UNUSED
  73:.\Generated_Source\PSoC4/cyfitter_cfg.c **** static void CYCONFIGCPYCODE(void *dest, const void *src, size_t n);
  74:.\Generated_Source\PSoC4/cyfitter_cfg.c **** CY_CFG_UNUSED
  75:.\Generated_Source\PSoC4/cyfitter_cfg.c **** static void CYCONFIGCPYCODE(void *dest, const void *src, size_t n)
  76:.\Generated_Source\PSoC4/cyfitter_cfg.c **** {
  77:.\Generated_Source\PSoC4/cyfitter_cfg.c **** 	(void)memcpy(dest, src, n);
  78:.\Generated_Source\PSoC4/cyfitter_cfg.c **** }
  79:.\Generated_Source\PSoC4/cyfitter_cfg.c **** 
  80:.\Generated_Source\PSoC4/cyfitter_cfg.c **** 
  81:.\Generated_Source\PSoC4/cyfitter_cfg.c **** 
  82:.\Generated_Source\PSoC4/cyfitter_cfg.c **** /* Clock startup error codes                                                   */
  83:.\Generated_Source\PSoC4/cyfitter_cfg.c **** #define CYCLOCKSTART_NO_ERROR    0u
  84:.\Generated_Source\PSoC4/cyfitter_cfg.c **** #define CYCLOCKSTART_XTAL_ERROR  1u
  85:.\Generated_Source\PSoC4/cyfitter_cfg.c **** #define CYCLOCKSTART_32KHZ_ERROR 2u
  86:.\Generated_Source\PSoC4/cyfitter_cfg.c **** #define CYCLOCKSTART_PLL_ERROR   3u
  87:.\Generated_Source\PSoC4/cyfitter_cfg.c **** 
  88:.\Generated_Source\PSoC4/cyfitter_cfg.c **** #ifdef CY_NEED_CYCLOCKSTARTUPERROR
  89:.\Generated_Source\PSoC4/cyfitter_cfg.c **** /*******************************************************************************
  90:.\Generated_Source\PSoC4/cyfitter_cfg.c **** * Function Name: CyClockStartupError
ARM GAS  C:\Users\Parthiv\AppData\Local\Temp\ccbTTDig.s 			page 3


  91:.\Generated_Source\PSoC4/cyfitter_cfg.c **** ********************************************************************************
  92:.\Generated_Source\PSoC4/cyfitter_cfg.c **** * Summary:
  93:.\Generated_Source\PSoC4/cyfitter_cfg.c **** *  If an error is encountered during clock configuration (crystal startup error,
  94:.\Generated_Source\PSoC4/cyfitter_cfg.c **** *  PLL lock error, etc.), the system will end up here.  Unless reimplemented by
  95:.\Generated_Source\PSoC4/cyfitter_cfg.c **** *  the customer, this function will stop in an infinite loop.
  96:.\Generated_Source\PSoC4/cyfitter_cfg.c **** *
  97:.\Generated_Source\PSoC4/cyfitter_cfg.c **** * Parameters:
  98:.\Generated_Source\PSoC4/cyfitter_cfg.c **** *   void
  99:.\Generated_Source\PSoC4/cyfitter_cfg.c **** *
 100:.\Generated_Source\PSoC4/cyfitter_cfg.c **** * Return:
 101:.\Generated_Source\PSoC4/cyfitter_cfg.c **** *   void
 102:.\Generated_Source\PSoC4/cyfitter_cfg.c **** *
 103:.\Generated_Source\PSoC4/cyfitter_cfg.c **** *******************************************************************************/
 104:.\Generated_Source\PSoC4/cyfitter_cfg.c **** CY_CFG_UNUSED
 105:.\Generated_Source\PSoC4/cyfitter_cfg.c **** static void CyClockStartupError(uint8 errorCode);
 106:.\Generated_Source\PSoC4/cyfitter_cfg.c **** CY_CFG_UNUSED
 107:.\Generated_Source\PSoC4/cyfitter_cfg.c **** static void CyClockStartupError(uint8 errorCode)
 108:.\Generated_Source\PSoC4/cyfitter_cfg.c **** {
 109:.\Generated_Source\PSoC4/cyfitter_cfg.c ****     /* To remove the compiler warning if errorCode not used.                */
 110:.\Generated_Source\PSoC4/cyfitter_cfg.c ****     errorCode = errorCode;
 111:.\Generated_Source\PSoC4/cyfitter_cfg.c **** 
 112:.\Generated_Source\PSoC4/cyfitter_cfg.c ****     /* `#START CyClockStartupError` */
 113:.\Generated_Source\PSoC4/cyfitter_cfg.c **** 
 114:.\Generated_Source\PSoC4/cyfitter_cfg.c ****     /* If we have a clock startup error (bad MHz crystal, PLL lock, etc.),  */
 115:.\Generated_Source\PSoC4/cyfitter_cfg.c ****     /* we will end up here to allow the customer to implement something to  */
 116:.\Generated_Source\PSoC4/cyfitter_cfg.c ****     /* deal with the clock condition.                                       */
 117:.\Generated_Source\PSoC4/cyfitter_cfg.c **** 
 118:.\Generated_Source\PSoC4/cyfitter_cfg.c ****     /* `#END` */
 119:.\Generated_Source\PSoC4/cyfitter_cfg.c **** 
 120:.\Generated_Source\PSoC4/cyfitter_cfg.c ****     /* If nothing else, stop here since the clocks have not started         */
 121:.\Generated_Source\PSoC4/cyfitter_cfg.c ****     /* correctly.                                                           */
 122:.\Generated_Source\PSoC4/cyfitter_cfg.c ****     while(1) {}
 123:.\Generated_Source\PSoC4/cyfitter_cfg.c **** }
 124:.\Generated_Source\PSoC4/cyfitter_cfg.c **** #endif
 125:.\Generated_Source\PSoC4/cyfitter_cfg.c **** 
 126:.\Generated_Source\PSoC4/cyfitter_cfg.c **** #define CY_CFG_BASE_ADDR_COUNT 9u
 127:.\Generated_Source\PSoC4/cyfitter_cfg.c **** CYPACKED typedef struct
 128:.\Generated_Source\PSoC4/cyfitter_cfg.c **** {
 129:.\Generated_Source\PSoC4/cyfitter_cfg.c **** 	uint8 offset;
 130:.\Generated_Source\PSoC4/cyfitter_cfg.c **** 	uint8 value;
 131:.\Generated_Source\PSoC4/cyfitter_cfg.c **** } CYPACKED_ATTR cy_cfg_addrvalue_t;
 132:.\Generated_Source\PSoC4/cyfitter_cfg.c **** 
 133:.\Generated_Source\PSoC4/cyfitter_cfg.c **** 
 134:.\Generated_Source\PSoC4/cyfitter_cfg.c **** 
 135:.\Generated_Source\PSoC4/cyfitter_cfg.c **** /*******************************************************************************
 136:.\Generated_Source\PSoC4/cyfitter_cfg.c **** * Function Name: cfg_write_bytes32
 137:.\Generated_Source\PSoC4/cyfitter_cfg.c **** ********************************************************************************
 138:.\Generated_Source\PSoC4/cyfitter_cfg.c **** * Summary:
 139:.\Generated_Source\PSoC4/cyfitter_cfg.c **** *  This function is used for setting up the chip configuration areas that
 140:.\Generated_Source\PSoC4/cyfitter_cfg.c **** *  contain relatively sparse data.
 141:.\Generated_Source\PSoC4/cyfitter_cfg.c **** *
 142:.\Generated_Source\PSoC4/cyfitter_cfg.c **** * Parameters:
 143:.\Generated_Source\PSoC4/cyfitter_cfg.c **** *   void
 144:.\Generated_Source\PSoC4/cyfitter_cfg.c **** *
 145:.\Generated_Source\PSoC4/cyfitter_cfg.c **** * Return:
 146:.\Generated_Source\PSoC4/cyfitter_cfg.c **** *   void
 147:.\Generated_Source\PSoC4/cyfitter_cfg.c **** *
ARM GAS  C:\Users\Parthiv\AppData\Local\Temp\ccbTTDig.s 			page 4


 148:.\Generated_Source\PSoC4/cyfitter_cfg.c **** *******************************************************************************/
 149:.\Generated_Source\PSoC4/cyfitter_cfg.c **** static void cfg_write_bytes32(const uint32 addr_table[], const cy_cfg_addrvalue_t data_table[]);
 150:.\Generated_Source\PSoC4/cyfitter_cfg.c **** static void cfg_write_bytes32(const uint32 addr_table[], const cy_cfg_addrvalue_t data_table[])
 151:.\Generated_Source\PSoC4/cyfitter_cfg.c **** {
  25              		.loc 1 151 0
  26              		.cfi_startproc
  27              	.LVL0:
  28 0000 F0B5     		push	{r4, r5, r6, r7, lr}
  29              		.cfi_def_cfa_offset 20
  30              		.cfi_offset 4, -20
  31              		.cfi_offset 5, -16
  32              		.cfi_offset 6, -12
  33              		.cfi_offset 7, -8
  34              		.cfi_offset 14, -4
  35              	.LVL1:
 152:.\Generated_Source\PSoC4/cyfitter_cfg.c **** 	/* For 32-bit little-endian architectures */
 153:.\Generated_Source\PSoC4/cyfitter_cfg.c **** 	uint32 i, j = 0u;
  36              		.loc 1 153 0
  37 0002 0025     		mov	r5, #0
 154:.\Generated_Source\PSoC4/cyfitter_cfg.c **** 	for (i = 0u; i < CY_CFG_BASE_ADDR_COUNT; i++)
  38              		.loc 1 154 0
  39 0004 0027     		mov	r7, #0
  40 0006 11E0     		b	.L2
  41              	.LVL2:
  42              	.L5:
  43              	.LBB2:
 155:.\Generated_Source\PSoC4/cyfitter_cfg.c **** 	{
 156:.\Generated_Source\PSoC4/cyfitter_cfg.c **** 		uint32 baseAddr = addr_table[i];
  44              		.loc 1 156 0
  45 0008 BB00     		lsl	r3, r7, #2
  46 000a C658     		ldr	r6, [r0, r3]
  47              	.LVL3:
 157:.\Generated_Source\PSoC4/cyfitter_cfg.c **** 		uint8 count = (uint8)baseAddr;
  48              		.loc 1 157 0
  49 000c F3B2     		uxtb	r3, r6
  50              	.LVL4:
 158:.\Generated_Source\PSoC4/cyfitter_cfg.c **** 		baseAddr &= 0xFFFFFF00u;
  51              		.loc 1 158 0
  52 000e FF22     		mov	r2, #255
  53 0010 9643     		bic	r6, r2
  54              	.LVL5:
 159:.\Generated_Source\PSoC4/cyfitter_cfg.c **** 		while (count != 0u)
  55              		.loc 1 159 0
  56 0012 08E0     		b	.L3
  57              	.L4:
 160:.\Generated_Source\PSoC4/cyfitter_cfg.c **** 		{
 161:.\Generated_Source\PSoC4/cyfitter_cfg.c **** 			CY_SET_XTND_REG8((void CYFAR *)(baseAddr + data_table[j].offset), data_table[j].value);
  58              		.loc 1 161 0
  59 0014 6A00     		lsl	r2, r5, #1
  60 0016 8A18     		add	r2, r1, r2
  61 0018 1478     		ldrb	r4, [r2]
  62 001a A419     		add	r4, r4, r6
  63 001c 5278     		ldrb	r2, [r2, #1]
  64 001e 2270     		strb	r2, [r4]
 162:.\Generated_Source\PSoC4/cyfitter_cfg.c **** 			j++;
  65              		.loc 1 162 0
  66 0020 0135     		add	r5, r5, #1
ARM GAS  C:\Users\Parthiv\AppData\Local\Temp\ccbTTDig.s 			page 5


  67              	.LVL6:
 163:.\Generated_Source\PSoC4/cyfitter_cfg.c **** 			count--;
  68              		.loc 1 163 0
  69 0022 013B     		sub	r3, r3, #1
  70              	.LVL7:
  71 0024 DBB2     		uxtb	r3, r3
  72              	.LVL8:
  73              	.L3:
 159:.\Generated_Source\PSoC4/cyfitter_cfg.c **** 		{
  74              		.loc 1 159 0
  75 0026 002B     		cmp	r3, #0
  76 0028 F4D1     		bne	.L4
  77              	.LBE2:
 154:.\Generated_Source\PSoC4/cyfitter_cfg.c **** 	{
  78              		.loc 1 154 0 discriminator 2
  79 002a 0137     		add	r7, r7, #1
  80              	.LVL9:
  81              	.L2:
 154:.\Generated_Source\PSoC4/cyfitter_cfg.c **** 	{
  82              		.loc 1 154 0 is_stmt 0 discriminator 1
  83 002c 082F     		cmp	r7, #8
  84 002e EBD9     		bls	.L5
 164:.\Generated_Source\PSoC4/cyfitter_cfg.c **** 		}
 165:.\Generated_Source\PSoC4/cyfitter_cfg.c **** 	}
 166:.\Generated_Source\PSoC4/cyfitter_cfg.c **** }
  85              		.loc 1 166 0 is_stmt 1
  86              		@ sp needed
  87              	.LVL10:
  88              	.LVL11:
  89 0030 F0BD     		pop	{r4, r5, r6, r7, pc}
  90              		.cfi_endproc
  91              	.LFE5:
  92              		.size	cfg_write_bytes32, .-cfg_write_bytes32
  93 0032 C046     		.section	.text.AnalogSetDefault,"ax",%progbits
  94              		.align	2
  95              		.code	16
  96              		.thumb_func
  97              		.type	AnalogSetDefault, %function
  98              	AnalogSetDefault:
  99              	.LFB7:
 167:.\Generated_Source\PSoC4/cyfitter_cfg.c **** 
 168:.\Generated_Source\PSoC4/cyfitter_cfg.c **** 
 169:.\Generated_Source\PSoC4/cyfitter_cfg.c **** /*******************************************************************************
 170:.\Generated_Source\PSoC4/cyfitter_cfg.c **** * Function Name: ClockSetup
 171:.\Generated_Source\PSoC4/cyfitter_cfg.c **** ********************************************************************************
 172:.\Generated_Source\PSoC4/cyfitter_cfg.c **** *
 173:.\Generated_Source\PSoC4/cyfitter_cfg.c **** * Summary:
 174:.\Generated_Source\PSoC4/cyfitter_cfg.c **** *   Performs the initialization of all of the clocks in the device based on the
 175:.\Generated_Source\PSoC4/cyfitter_cfg.c **** *   settings in the Clock tab of the DWR.  This includes enabling the requested
 176:.\Generated_Source\PSoC4/cyfitter_cfg.c **** *   clocks and setting the necessary dividers to produce the desired frequency. 
 177:.\Generated_Source\PSoC4/cyfitter_cfg.c **** *
 178:.\Generated_Source\PSoC4/cyfitter_cfg.c **** * Parameters:
 179:.\Generated_Source\PSoC4/cyfitter_cfg.c **** *   void
 180:.\Generated_Source\PSoC4/cyfitter_cfg.c **** *
 181:.\Generated_Source\PSoC4/cyfitter_cfg.c **** * Return:
 182:.\Generated_Source\PSoC4/cyfitter_cfg.c **** *   void
 183:.\Generated_Source\PSoC4/cyfitter_cfg.c **** *
ARM GAS  C:\Users\Parthiv\AppData\Local\Temp\ccbTTDig.s 			page 6


 184:.\Generated_Source\PSoC4/cyfitter_cfg.c **** *******************************************************************************/
 185:.\Generated_Source\PSoC4/cyfitter_cfg.c **** static void ClockSetup(void);
 186:.\Generated_Source\PSoC4/cyfitter_cfg.c **** CY_CFG_SECTION
 187:.\Generated_Source\PSoC4/cyfitter_cfg.c **** static void ClockSetup(void)
 188:.\Generated_Source\PSoC4/cyfitter_cfg.c **** {
 189:.\Generated_Source\PSoC4/cyfitter_cfg.c **** 
 190:.\Generated_Source\PSoC4/cyfitter_cfg.c **** 	/* Set Flash Cycles based on max possible frequency in case a glitch occurs during ClockSetup(). *
 191:.\Generated_Source\PSoC4/cyfitter_cfg.c **** 	CY_SET_REG32((void CYXDATA *)(CYREG_CPUSS_FLASH_CTL), (0x0012u));
 192:.\Generated_Source\PSoC4/cyfitter_cfg.c **** 
 193:.\Generated_Source\PSoC4/cyfitter_cfg.c **** 	/* Start the WCO */
 194:.\Generated_Source\PSoC4/cyfitter_cfg.c **** 	CySysClkWcoStart();
 195:.\Generated_Source\PSoC4/cyfitter_cfg.c **** 	CyDelayCycles(12000000u); /* WCO may take up to 500ms to start */
 196:.\Generated_Source\PSoC4/cyfitter_cfg.c **** 	(void)CySysClkWcoSetPowerMode(CY_SYS_CLK_WCO_LPM);    /* Switch to the low power mode */
 197:.\Generated_Source\PSoC4/cyfitter_cfg.c **** 
 198:.\Generated_Source\PSoC4/cyfitter_cfg.c **** 	/* Setup and trim IMO based on desired frequency. */
 199:.\Generated_Source\PSoC4/cyfitter_cfg.c **** 	CySysClkWriteImoFreq(48u);
 200:.\Generated_Source\PSoC4/cyfitter_cfg.c **** 	/* CYDEV_CLK_ILO_CONFIG Starting address: CYDEV_CLK_ILO_CONFIG */
 201:.\Generated_Source\PSoC4/cyfitter_cfg.c **** 	CY_SET_XTND_REG32((void CYFAR *)(CYREG_CLK_ILO_CONFIG), 0x80000006u);
 202:.\Generated_Source\PSoC4/cyfitter_cfg.c **** 
 203:.\Generated_Source\PSoC4/cyfitter_cfg.c **** 	/* CYDEV_WDT_CONFIG Starting address: CYDEV_WDT_CONFIG */
 204:.\Generated_Source\PSoC4/cyfitter_cfg.c **** 	CY_SET_XTND_REG32((void CYFAR *)(CYREG_WDT_CONFIG), 0x40000000u);
 205:.\Generated_Source\PSoC4/cyfitter_cfg.c **** 
 206:.\Generated_Source\PSoC4/cyfitter_cfg.c **** 
 207:.\Generated_Source\PSoC4/cyfitter_cfg.c **** 	/* Enable fast start mode for XO */
 208:.\Generated_Source\PSoC4/cyfitter_cfg.c **** 	CY_SET_REG32((void*)CYREG_BLE_BLERD_BB_XO, CY_GET_REG32((void*)CYREG_BLE_BLERD_BB_XO) | (uint32)0x
 209:.\Generated_Source\PSoC4/cyfitter_cfg.c **** 	CY_SET_XTND_REG32((void CYFAR *)(CYREG_BLE_BLERD_BB_XO_CAPTRIM), 0x00003E2Du);
 210:.\Generated_Source\PSoC4/cyfitter_cfg.c **** 	/* Disable Crystal Stable Interrupt before enabling ECO */
 211:.\Generated_Source\PSoC4/cyfitter_cfg.c **** 	CY_SET_REG32((void*)CYREG_BLE_BLESS_LL_DSM_CTRL, CY_GET_REG32((void*)CYREG_BLE_BLESS_LL_DSM_CTRL) 
 212:.\Generated_Source\PSoC4/cyfitter_cfg.c **** 	/* Start the ECO and do not check status since it is not needed for HFCLK */
 213:.\Generated_Source\PSoC4/cyfitter_cfg.c **** 	(void)CySysClkEcoStart(2000u);
 214:.\Generated_Source\PSoC4/cyfitter_cfg.c **** 	CyDelayUs(1500u); /* Wait to stabalize */
 215:.\Generated_Source\PSoC4/cyfitter_cfg.c **** 
 216:.\Generated_Source\PSoC4/cyfitter_cfg.c **** 	/* Setup phase aligned clocks */
 217:.\Generated_Source\PSoC4/cyfitter_cfg.c **** 	CY_SET_REG32((void *)CYREG_PERI_DIV_16_CTL0, 0x00027000u);
 218:.\Generated_Source\PSoC4/cyfitter_cfg.c **** 	CY_SET_REG32((void *)CYREG_PERI_DIV_CMD, 0x8000FF40u);
 219:.\Generated_Source\PSoC4/cyfitter_cfg.c **** 
 220:.\Generated_Source\PSoC4/cyfitter_cfg.c **** 	/* CYDEV_CLK_IMO_CONFIG Starting address: CYDEV_CLK_IMO_CONFIG */
 221:.\Generated_Source\PSoC4/cyfitter_cfg.c **** 	CY_SET_XTND_REG32((void CYFAR *)(CYREG_CLK_IMO_CONFIG), 0x80000000u);
 222:.\Generated_Source\PSoC4/cyfitter_cfg.c **** 
 223:.\Generated_Source\PSoC4/cyfitter_cfg.c **** 	/* CYDEV_CLK_SELECT Starting address: CYDEV_CLK_SELECT */
 224:.\Generated_Source\PSoC4/cyfitter_cfg.c **** 	CY_SET_XTND_REG32((void CYFAR *)(CYREG_CLK_SELECT), 0x00040000u);
 225:.\Generated_Source\PSoC4/cyfitter_cfg.c **** 
 226:.\Generated_Source\PSoC4/cyfitter_cfg.c **** 	/* CYDEV_PERI_PCLK_CTL11 Starting address: CYDEV_PERI_PCLK_CTL11 */
 227:.\Generated_Source\PSoC4/cyfitter_cfg.c **** 	CY_SET_XTND_REG32((void CYFAR *)(CYREG_PERI_PCLK_CTL11), 0x00000040u);
 228:.\Generated_Source\PSoC4/cyfitter_cfg.c **** 
 229:.\Generated_Source\PSoC4/cyfitter_cfg.c **** 	(void)CyIntSetVector(8u, &CySysWdtIsr);
 230:.\Generated_Source\PSoC4/cyfitter_cfg.c **** 	CyIntEnable(8u);
 231:.\Generated_Source\PSoC4/cyfitter_cfg.c **** 	CY_SET_XTND_REG32((void CYFAR *)(CYREG_WDT_CONFIG), 0x40000000u);
 232:.\Generated_Source\PSoC4/cyfitter_cfg.c **** }
 233:.\Generated_Source\PSoC4/cyfitter_cfg.c **** 
 234:.\Generated_Source\PSoC4/cyfitter_cfg.c **** 
 235:.\Generated_Source\PSoC4/cyfitter_cfg.c **** /* Analog API Functions */
 236:.\Generated_Source\PSoC4/cyfitter_cfg.c **** 
 237:.\Generated_Source\PSoC4/cyfitter_cfg.c **** 
 238:.\Generated_Source\PSoC4/cyfitter_cfg.c **** /*******************************************************************************
 239:.\Generated_Source\PSoC4/cyfitter_cfg.c **** * Function Name: AnalogSetDefault
 240:.\Generated_Source\PSoC4/cyfitter_cfg.c **** ********************************************************************************
ARM GAS  C:\Users\Parthiv\AppData\Local\Temp\ccbTTDig.s 			page 7


 241:.\Generated_Source\PSoC4/cyfitter_cfg.c **** *
 242:.\Generated_Source\PSoC4/cyfitter_cfg.c **** * Summary:
 243:.\Generated_Source\PSoC4/cyfitter_cfg.c **** *  Sets up the analog portions of the chip to default values based on chip
 244:.\Generated_Source\PSoC4/cyfitter_cfg.c **** *  configuration options from the project.
 245:.\Generated_Source\PSoC4/cyfitter_cfg.c **** *
 246:.\Generated_Source\PSoC4/cyfitter_cfg.c **** * Parameters:
 247:.\Generated_Source\PSoC4/cyfitter_cfg.c **** *  void
 248:.\Generated_Source\PSoC4/cyfitter_cfg.c **** *
 249:.\Generated_Source\PSoC4/cyfitter_cfg.c **** * Return:
 250:.\Generated_Source\PSoC4/cyfitter_cfg.c **** *  void
 251:.\Generated_Source\PSoC4/cyfitter_cfg.c **** *
 252:.\Generated_Source\PSoC4/cyfitter_cfg.c **** *******************************************************************************/
 253:.\Generated_Source\PSoC4/cyfitter_cfg.c **** static void AnalogSetDefault(void);
 254:.\Generated_Source\PSoC4/cyfitter_cfg.c **** static void AnalogSetDefault(void)
 255:.\Generated_Source\PSoC4/cyfitter_cfg.c **** {
 100              		.loc 1 255 0
 101              		.cfi_startproc
 256:.\Generated_Source\PSoC4/cyfitter_cfg.c **** 	CY_SET_XTND_REG32((void CYFAR *)CYREG_CTBM0_DFT_CTRL, 0x00000003u);
 102              		.loc 1 256 0
 103 0000 0323     		mov	r3, #3
 104 0002 044A     		ldr	r2, .L7
 105 0004 1360     		str	r3, [r2]
 257:.\Generated_Source\PSoC4/cyfitter_cfg.c **** 	CY_SET_XTND_REG32((void CYFAR *)CYREG_CTBM1_DFT_CTRL, 0x00000003u);
 106              		.loc 1 257 0
 107 0006 044A     		ldr	r2, .L7+4
 108 0008 1360     		str	r3, [r2]
 258:.\Generated_Source\PSoC4/cyfitter_cfg.c **** 	CY_SET_XTND_REG32((void CYFAR *)CYREG_PASS_DSAB_DSAB_CTRL, 0x00000000u);
 109              		.loc 1 258 0
 110 000a 0022     		mov	r2, #0
 111 000c 034B     		ldr	r3, .L7+8
 112 000e 1A60     		str	r2, [r3]
 259:.\Generated_Source\PSoC4/cyfitter_cfg.c **** }
 113              		.loc 1 259 0
 114              		@ sp needed
 115 0010 7047     		bx	lr
 116              	.L8:
 117 0012 C046     		.align	2
 118              	.L7:
 119 0014 30003040 		.word	1076887600
 120 0018 30003140 		.word	1076953136
 121 001c 000E3F40 		.word	1077874176
 122              		.cfi_endproc
 123              	.LFE7:
 124              		.size	AnalogSetDefault, .-AnalogSetDefault
 125              		.section	.text.CYMEMZERO,"ax",%progbits
 126              		.align	2
 127              		.code	16
 128              		.thumb_func
 129              		.type	CYMEMZERO, %function
 130              	CYMEMZERO:
 131              	.LFB2:
  62:.\Generated_Source\PSoC4/cyfitter_cfg.c **** 	(void)memset(s, 0, n);
 132              		.loc 1 62 0
 133              		.cfi_startproc
 134              	.LVL12:
 135 0000 08B5     		push	{r3, lr}
 136              		.cfi_def_cfa_offset 8
ARM GAS  C:\Users\Parthiv\AppData\Local\Temp\ccbTTDig.s 			page 8


 137              		.cfi_offset 3, -8
 138              		.cfi_offset 14, -4
 139 0002 0A1C     		mov	r2, r1
  63:.\Generated_Source\PSoC4/cyfitter_cfg.c **** }
 140              		.loc 1 63 0
 141 0004 0021     		mov	r1, #0
 142              	.LVL13:
 143 0006 FFF7FEFF 		bl	memset
 144              	.LVL14:
  64:.\Generated_Source\PSoC4/cyfitter_cfg.c **** CY_CFG_UNUSED
 145              		.loc 1 64 0
 146              		@ sp needed
 147 000a 08BD     		pop	{r3, pc}
 148              		.cfi_endproc
 149              	.LFE2:
 150              		.size	CYMEMZERO, .-CYMEMZERO
 151              		.section	.text.CYCONFIGCPYCODE,"ax",%progbits
 152              		.align	2
 153              		.code	16
 154              		.thumb_func
 155              		.type	CYCONFIGCPYCODE, %function
 156              	CYCONFIGCPYCODE:
 157              	.LFB4:
  76:.\Generated_Source\PSoC4/cyfitter_cfg.c **** 	(void)memcpy(dest, src, n);
 158              		.loc 1 76 0
 159              		.cfi_startproc
 160              	.LVL15:
 161 0000 08B5     		push	{r3, lr}
 162              		.cfi_def_cfa_offset 8
 163              		.cfi_offset 3, -8
 164              		.cfi_offset 14, -4
  77:.\Generated_Source\PSoC4/cyfitter_cfg.c **** }
 165              		.loc 1 77 0
 166 0002 FFF7FEFF 		bl	memcpy
 167              	.LVL16:
  78:.\Generated_Source\PSoC4/cyfitter_cfg.c **** 
 168              		.loc 1 78 0
 169              		@ sp needed
 170 0006 08BD     		pop	{r3, pc}
 171              		.cfi_endproc
 172              	.LFE4:
 173              		.size	CYCONFIGCPYCODE, .-CYCONFIGCPYCODE
 174              		.section	.psocinit,"ax",%progbits
 175              		.align	2
 176              		.code	16
 177              		.thumb_func
 178              		.type	ClockSetup, %function
 179              	ClockSetup:
 180              	.LFB6:
 188:.\Generated_Source\PSoC4/cyfitter_cfg.c **** 
 181              		.loc 1 188 0
 182              		.cfi_startproc
 183 0000 38B5     		push	{r3, r4, r5, lr}
 184              		.cfi_def_cfa_offset 16
 185              		.cfi_offset 3, -16
 186              		.cfi_offset 4, -12
 187              		.cfi_offset 5, -8
ARM GAS  C:\Users\Parthiv\AppData\Local\Temp\ccbTTDig.s 			page 9


 188              		.cfi_offset 14, -4
 191:.\Generated_Source\PSoC4/cyfitter_cfg.c **** 
 189              		.loc 1 191 0
 190 0002 1222     		mov	r2, #18
 191 0004 214B     		ldr	r3, .L12
 192 0006 1A60     		str	r2, [r3]
 194:.\Generated_Source\PSoC4/cyfitter_cfg.c **** 	CyDelayCycles(12000000u); /* WCO may take up to 500ms to start */
 193              		.loc 1 194 0
 194 0008 FFF7FEFF 		bl	CySysClkWcoStart
 195              	.LVL17:
 195:.\Generated_Source\PSoC4/cyfitter_cfg.c **** 	(void)CySysClkWcoSetPowerMode(CY_SYS_CLK_WCO_LPM);    /* Switch to the low power mode */
 196              		.loc 1 195 0
 197 000c 2048     		ldr	r0, .L12+4
 198 000e FFF7FEFF 		bl	CyDelayCycles
 199              	.LVL18:
 196:.\Generated_Source\PSoC4/cyfitter_cfg.c **** 
 200              		.loc 1 196 0
 201 0012 0120     		mov	r0, #1
 202 0014 FFF7FEFF 		bl	CySysClkWcoSetPowerMode
 203              	.LVL19:
 199:.\Generated_Source\PSoC4/cyfitter_cfg.c **** 	/* CYDEV_CLK_ILO_CONFIG Starting address: CYDEV_CLK_ILO_CONFIG */
 204              		.loc 1 199 0
 205 0018 3020     		mov	r0, #48
 206 001a FFF7FEFF 		bl	CySysClkWriteImoFreq
 207              	.LVL20:
 201:.\Generated_Source\PSoC4/cyfitter_cfg.c **** 
 208              		.loc 1 201 0
 209 001e 1D4A     		ldr	r2, .L12+8
 210 0020 1D4B     		ldr	r3, .L12+12
 211 0022 1A60     		str	r2, [r3]
 204:.\Generated_Source\PSoC4/cyfitter_cfg.c **** 
 212              		.loc 1 204 0
 213 0024 1D4C     		ldr	r4, .L12+16
 214 0026 8025     		mov	r5, #128
 215 0028 ED05     		lsl	r5, r5, #23
 216 002a 2560     		str	r5, [r4]
 208:.\Generated_Source\PSoC4/cyfitter_cfg.c **** 	CY_SET_XTND_REG32((void CYFAR *)(CYREG_BLE_BLERD_BB_XO_CAPTRIM), 0x00003E2Du);
 217              		.loc 1 208 0
 218 002c 1C4A     		ldr	r2, .L12+20
 219 002e 1168     		ldr	r1, [r2]
 220 0030 0223     		mov	r3, #2
 221 0032 0B43     		orr	r3, r1
 222 0034 1360     		str	r3, [r2]
 209:.\Generated_Source\PSoC4/cyfitter_cfg.c **** 	/* Disable Crystal Stable Interrupt before enabling ECO */
 223              		.loc 1 209 0
 224 0036 1B4A     		ldr	r2, .L12+24
 225 0038 1B4B     		ldr	r3, .L12+28
 226 003a 1A60     		str	r2, [r3]
 211:.\Generated_Source\PSoC4/cyfitter_cfg.c **** 	/* Start the ECO and do not check status since it is not needed for HFCLK */
 227              		.loc 1 211 0
 228 003c 1B4A     		ldr	r2, .L12+32
 229 003e 1368     		ldr	r3, [r2]
 230 0040 0821     		mov	r1, #8
 231 0042 8B43     		bic	r3, r1
 232 0044 1360     		str	r3, [r2]
 213:.\Generated_Source\PSoC4/cyfitter_cfg.c **** 	CyDelayUs(1500u); /* Wait to stabalize */
 233              		.loc 1 213 0
ARM GAS  C:\Users\Parthiv\AppData\Local\Temp\ccbTTDig.s 			page 10


 234 0046 FA20     		mov	r0, #250
 235 0048 C000     		lsl	r0, r0, #3
 236 004a FFF7FEFF 		bl	CySysClkEcoStart
 237              	.LVL21:
 214:.\Generated_Source\PSoC4/cyfitter_cfg.c **** 
 238              		.loc 1 214 0
 239 004e 1848     		ldr	r0, .L12+36
 240 0050 FFF7FEFF 		bl	CyDelayUs
 241              	.LVL22:
 217:.\Generated_Source\PSoC4/cyfitter_cfg.c **** 	CY_SET_REG32((void *)CYREG_PERI_DIV_CMD, 0x8000FF40u);
 242              		.loc 1 217 0
 243 0054 9C22     		mov	r2, #156
 244 0056 9202     		lsl	r2, r2, #10
 245 0058 164B     		ldr	r3, .L12+40
 246 005a 1A60     		str	r2, [r3]
 218:.\Generated_Source\PSoC4/cyfitter_cfg.c **** 
 247              		.loc 1 218 0
 248 005c 164A     		ldr	r2, .L12+44
 249 005e 174B     		ldr	r3, .L12+48
 250 0060 1A60     		str	r2, [r3]
 221:.\Generated_Source\PSoC4/cyfitter_cfg.c **** 
 251              		.loc 1 221 0
 252 0062 8022     		mov	r2, #128
 253 0064 1206     		lsl	r2, r2, #24
 254 0066 164B     		ldr	r3, .L12+52
 255 0068 1A60     		str	r2, [r3]
 224:.\Generated_Source\PSoC4/cyfitter_cfg.c **** 
 256              		.loc 1 224 0
 257 006a 8022     		mov	r2, #128
 258 006c D202     		lsl	r2, r2, #11
 259 006e 154B     		ldr	r3, .L12+56
 260 0070 1A60     		str	r2, [r3]
 227:.\Generated_Source\PSoC4/cyfitter_cfg.c **** 
 261              		.loc 1 227 0
 262 0072 4022     		mov	r2, #64
 263 0074 144B     		ldr	r3, .L12+60
 264 0076 1A60     		str	r2, [r3]
 229:.\Generated_Source\PSoC4/cyfitter_cfg.c **** 	CyIntEnable(8u);
 265              		.loc 1 229 0
 266 0078 0820     		mov	r0, #8
 267 007a 1449     		ldr	r1, .L12+64
 268 007c FFF7FEFF 		bl	CyIntSetVector
 269              	.LVL23:
 230:.\Generated_Source\PSoC4/cyfitter_cfg.c **** 	CY_SET_XTND_REG32((void CYFAR *)(CYREG_WDT_CONFIG), 0x40000000u);
 270              		.loc 1 230 0
 271 0080 0820     		mov	r0, #8
 272 0082 FFF7FEFF 		bl	CyIntEnable
 273              	.LVL24:
 231:.\Generated_Source\PSoC4/cyfitter_cfg.c **** }
 274              		.loc 1 231 0
 275 0086 2560     		str	r5, [r4]
 232:.\Generated_Source\PSoC4/cyfitter_cfg.c **** 
 276              		.loc 1 232 0
 277              		@ sp needed
 278 0088 38BD     		pop	{r3, r4, r5, pc}
 279              	.L13:
 280 008a C046     		.align	2
ARM GAS  C:\Users\Parthiv\AppData\Local\Temp\ccbTTDig.s 			page 11


 281              	.L12:
 282 008c 30001040 		.word	1074790448
 283 0090 001BB700 		.word	12000000
 284 0094 06000080 		.word	-2147483642
 285 0098 04010B40 		.word	1074462980
 286 009c 0C020B40 		.word	1074463244
 287 00a0 78002E40 		.word	1076756600
 288 00a4 2D3E0000 		.word	15917
 289 00a8 7C002E40 		.word	1076756604
 290 00ac 6CF02E40 		.word	1076818028
 291 00b0 DC050000 		.word	1500
 292 00b4 00030140 		.word	1073808128
 293 00b8 40FF0080 		.word	-2147418304
 294 00bc 00000140 		.word	1073807360
 295 00c0 08010B40 		.word	1074462984
 296 00c4 00010B40 		.word	1074462976
 297 00c8 2C010140 		.word	1073807660
 298 00cc 00000000 		.word	CySysWdtIsr
 299              		.cfi_endproc
 300              	.LFE6:
 301              		.size	ClockSetup, .-ClockSetup
 302              		.align	2
 303              		.global	cyfitter_cfg
 304              		.code	16
 305              		.thumb_func
 306              		.type	cyfitter_cfg, %function
 307              	cyfitter_cfg:
 308              	.LFB8:
 260:.\Generated_Source\PSoC4/cyfitter_cfg.c **** 
 261:.\Generated_Source\PSoC4/cyfitter_cfg.c **** #define CY_AMUX_UNUSED CYREG_CM0_ROM_DWT
 262:.\Generated_Source\PSoC4/cyfitter_cfg.c **** 
 263:.\Generated_Source\PSoC4/cyfitter_cfg.c **** 
 264:.\Generated_Source\PSoC4/cyfitter_cfg.c **** /*******************************************************************************
 265:.\Generated_Source\PSoC4/cyfitter_cfg.c **** * Function Name: cyfitter_cfg
 266:.\Generated_Source\PSoC4/cyfitter_cfg.c **** ********************************************************************************
 267:.\Generated_Source\PSoC4/cyfitter_cfg.c **** * Summary:
 268:.\Generated_Source\PSoC4/cyfitter_cfg.c **** *  This function is called by the start-up code for the selected device. It
 269:.\Generated_Source\PSoC4/cyfitter_cfg.c **** *  performs all of the necessary device configuration based on the design
 270:.\Generated_Source\PSoC4/cyfitter_cfg.c **** *  settings.  This includes settings from the Design Wide Resources (DWR) such
 271:.\Generated_Source\PSoC4/cyfitter_cfg.c **** *  as Clocks and Pins as well as any component configuration that is necessary.
 272:.\Generated_Source\PSoC4/cyfitter_cfg.c **** *
 273:.\Generated_Source\PSoC4/cyfitter_cfg.c **** * Parameters:  
 274:.\Generated_Source\PSoC4/cyfitter_cfg.c **** *   void
 275:.\Generated_Source\PSoC4/cyfitter_cfg.c **** *
 276:.\Generated_Source\PSoC4/cyfitter_cfg.c **** * Return:
 277:.\Generated_Source\PSoC4/cyfitter_cfg.c **** *   void
 278:.\Generated_Source\PSoC4/cyfitter_cfg.c **** *
 279:.\Generated_Source\PSoC4/cyfitter_cfg.c **** *******************************************************************************/
 280:.\Generated_Source\PSoC4/cyfitter_cfg.c **** CY_CFG_SECTION
 281:.\Generated_Source\PSoC4/cyfitter_cfg.c **** void cyfitter_cfg(void)
 282:.\Generated_Source\PSoC4/cyfitter_cfg.c **** {
 309              		.loc 1 282 0
 310              		.cfi_startproc
 311 00d0 38B5     		push	{r3, r4, r5, lr}
 312              		.cfi_def_cfa_offset 16
 313              		.cfi_offset 3, -16
 314              		.cfi_offset 4, -12
ARM GAS  C:\Users\Parthiv\AppData\Local\Temp\ccbTTDig.s 			page 12


 315              		.cfi_offset 5, -8
 316              		.cfi_offset 14, -4
 283:.\Generated_Source\PSoC4/cyfitter_cfg.c **** 	/* Disable interrupts by default. Let user enable if/when they want. */
 284:.\Generated_Source\PSoC4/cyfitter_cfg.c **** 	CyGlobalIntDisable;
 317              		.loc 1 284 0
 318              	@ 284 ".\Generated_Source\PSoC4\cyfitter_cfg.c" 1
 319 00d2 72B6     		CPSID   i
 320              	@ 0 "" 2
 285:.\Generated_Source\PSoC4/cyfitter_cfg.c **** 
 286:.\Generated_Source\PSoC4/cyfitter_cfg.c **** 	CY_SET_XTND_REG32((void CYFAR *)(CYREG_BLE_BLESS_LL_DSM_CTRL), 0x00000000u);
 321              		.loc 1 286 0
 322              		.code	16
 323 00d4 0022     		mov	r2, #0
 324 00d6 4C4B     		ldr	r3, .L19
 325 00d8 1A60     		str	r2, [r3]
 326              	.LVL25:
 327              	.LBB3:
 287:.\Generated_Source\PSoC4/cyfitter_cfg.c **** 
 288:.\Generated_Source\PSoC4/cyfitter_cfg.c **** 	{
 289:.\Generated_Source\PSoC4/cyfitter_cfg.c **** 		static const uint32 CYCODE cy_cfg_addr_table[] = {
 290:.\Generated_Source\PSoC4/cyfitter_cfg.c **** 			0x400F0004u, /* Base address: 0x400F0000 Count: 4 */
 291:.\Generated_Source\PSoC4/cyfitter_cfg.c **** 			0x400F3012u, /* Base address: 0x400F3000 Count: 18 */
 292:.\Generated_Source\PSoC4/cyfitter_cfg.c **** 			0x400F3139u, /* Base address: 0x400F3100 Count: 57 */
 293:.\Generated_Source\PSoC4/cyfitter_cfg.c **** 			0x400F326Au, /* Base address: 0x400F3200 Count: 106 */
 294:.\Generated_Source\PSoC4/cyfitter_cfg.c **** 			0x400F334Eu, /* Base address: 0x400F3300 Count: 78 */
 295:.\Generated_Source\PSoC4/cyfitter_cfg.c **** 			0x400F4109u, /* Base address: 0x400F4100 Count: 9 */
 296:.\Generated_Source\PSoC4/cyfitter_cfg.c **** 			0x400F4202u, /* Base address: 0x400F4200 Count: 2 */
 297:.\Generated_Source\PSoC4/cyfitter_cfg.c **** 			0x400F4308u, /* Base address: 0x400F4300 Count: 8 */
 298:.\Generated_Source\PSoC4/cyfitter_cfg.c **** 			0x400F6002u, /* Base address: 0x400F6000 Count: 2 */
 299:.\Generated_Source\PSoC4/cyfitter_cfg.c **** 		};
 300:.\Generated_Source\PSoC4/cyfitter_cfg.c **** 
 301:.\Generated_Source\PSoC4/cyfitter_cfg.c **** 		static const cy_cfg_addrvalue_t CYCODE cy_cfg_data_table[] = {
 302:.\Generated_Source\PSoC4/cyfitter_cfg.c **** 			{0x73u, 0x07u},
 303:.\Generated_Source\PSoC4/cyfitter_cfg.c **** 			{0x80u, 0x38u},
 304:.\Generated_Source\PSoC4/cyfitter_cfg.c **** 			{0x81u, 0x72u},
 305:.\Generated_Source\PSoC4/cyfitter_cfg.c **** 			{0x82u, 0x0Fu},
 306:.\Generated_Source\PSoC4/cyfitter_cfg.c **** 			{0x02u, 0x02u},
 307:.\Generated_Source\PSoC4/cyfitter_cfg.c **** 			{0x06u, 0x01u},
 308:.\Generated_Source\PSoC4/cyfitter_cfg.c **** 			{0x12u, 0x01u},
 309:.\Generated_Source\PSoC4/cyfitter_cfg.c **** 			{0x21u, 0x01u},
 310:.\Generated_Source\PSoC4/cyfitter_cfg.c **** 			{0x2Au, 0x04u},
 311:.\Generated_Source\PSoC4/cyfitter_cfg.c **** 			{0x2Eu, 0x02u},
 312:.\Generated_Source\PSoC4/cyfitter_cfg.c **** 			{0x30u, 0x04u},
 313:.\Generated_Source\PSoC4/cyfitter_cfg.c **** 			{0x32u, 0x01u},
 314:.\Generated_Source\PSoC4/cyfitter_cfg.c **** 			{0x34u, 0x02u},
 315:.\Generated_Source\PSoC4/cyfitter_cfg.c **** 			{0x37u, 0x01u},
 316:.\Generated_Source\PSoC4/cyfitter_cfg.c **** 			{0x3Au, 0x80u},
 317:.\Generated_Source\PSoC4/cyfitter_cfg.c **** 			{0x3Eu, 0x14u},
 318:.\Generated_Source\PSoC4/cyfitter_cfg.c **** 			{0x3Fu, 0x40u},
 319:.\Generated_Source\PSoC4/cyfitter_cfg.c **** 			{0x54u, 0x18u},
 320:.\Generated_Source\PSoC4/cyfitter_cfg.c **** 			{0x58u, 0x04u},
 321:.\Generated_Source\PSoC4/cyfitter_cfg.c **** 			{0x59u, 0x04u},
 322:.\Generated_Source\PSoC4/cyfitter_cfg.c **** 			{0x5Bu, 0x04u},
 323:.\Generated_Source\PSoC4/cyfitter_cfg.c **** 			{0x5Fu, 0x01u},
 324:.\Generated_Source\PSoC4/cyfitter_cfg.c **** 			{0x02u, 0xA0u},
 325:.\Generated_Source\PSoC4/cyfitter_cfg.c **** 			{0x04u, 0xA8u},
 326:.\Generated_Source\PSoC4/cyfitter_cfg.c **** 			{0x06u, 0x80u},
ARM GAS  C:\Users\Parthiv\AppData\Local\Temp\ccbTTDig.s 			page 13


 327:.\Generated_Source\PSoC4/cyfitter_cfg.c **** 			{0x09u, 0x02u},
 328:.\Generated_Source\PSoC4/cyfitter_cfg.c **** 			{0x0Du, 0x20u},
 329:.\Generated_Source\PSoC4/cyfitter_cfg.c **** 			{0x0Eu, 0x10u},
 330:.\Generated_Source\PSoC4/cyfitter_cfg.c **** 			{0x0Fu, 0x80u},
 331:.\Generated_Source\PSoC4/cyfitter_cfg.c **** 			{0x11u, 0x20u},
 332:.\Generated_Source\PSoC4/cyfitter_cfg.c **** 			{0x12u, 0x01u},
 333:.\Generated_Source\PSoC4/cyfitter_cfg.c **** 			{0x16u, 0x02u},
 334:.\Generated_Source\PSoC4/cyfitter_cfg.c **** 			{0x17u, 0x26u},
 335:.\Generated_Source\PSoC4/cyfitter_cfg.c **** 			{0x18u, 0x14u},
 336:.\Generated_Source\PSoC4/cyfitter_cfg.c **** 			{0x19u, 0x40u},
 337:.\Generated_Source\PSoC4/cyfitter_cfg.c **** 			{0x1Au, 0x40u},
 338:.\Generated_Source\PSoC4/cyfitter_cfg.c **** 			{0x1Bu, 0x40u},
 339:.\Generated_Source\PSoC4/cyfitter_cfg.c **** 			{0x1Cu, 0x08u},
 340:.\Generated_Source\PSoC4/cyfitter_cfg.c **** 			{0x1Du, 0x22u},
 341:.\Generated_Source\PSoC4/cyfitter_cfg.c **** 			{0x1Eu, 0x21u},
 342:.\Generated_Source\PSoC4/cyfitter_cfg.c **** 			{0x23u, 0x01u},
 343:.\Generated_Source\PSoC4/cyfitter_cfg.c **** 			{0x24u, 0x40u},
 344:.\Generated_Source\PSoC4/cyfitter_cfg.c **** 			{0x26u, 0x84u},
 345:.\Generated_Source\PSoC4/cyfitter_cfg.c **** 			{0x27u, 0x08u},
 346:.\Generated_Source\PSoC4/cyfitter_cfg.c **** 			{0x2Bu, 0x80u},
 347:.\Generated_Source\PSoC4/cyfitter_cfg.c **** 			{0x2Cu, 0x08u},
 348:.\Generated_Source\PSoC4/cyfitter_cfg.c **** 			{0x2Du, 0x04u},
 349:.\Generated_Source\PSoC4/cyfitter_cfg.c **** 			{0x2Eu, 0x40u},
 350:.\Generated_Source\PSoC4/cyfitter_cfg.c **** 			{0x35u, 0x40u},
 351:.\Generated_Source\PSoC4/cyfitter_cfg.c **** 			{0x37u, 0x26u},
 352:.\Generated_Source\PSoC4/cyfitter_cfg.c **** 			{0x38u, 0x08u},
 353:.\Generated_Source\PSoC4/cyfitter_cfg.c **** 			{0x39u, 0x04u},
 354:.\Generated_Source\PSoC4/cyfitter_cfg.c **** 			{0x3Cu, 0x48u},
 355:.\Generated_Source\PSoC4/cyfitter_cfg.c **** 			{0x3Du, 0x20u},
 356:.\Generated_Source\PSoC4/cyfitter_cfg.c **** 			{0x3Eu, 0x82u},
 357:.\Generated_Source\PSoC4/cyfitter_cfg.c **** 			{0x45u, 0x22u},
 358:.\Generated_Source\PSoC4/cyfitter_cfg.c **** 			{0x47u, 0x40u},
 359:.\Generated_Source\PSoC4/cyfitter_cfg.c **** 			{0x4Cu, 0x04u},
 360:.\Generated_Source\PSoC4/cyfitter_cfg.c **** 			{0x4Eu, 0x20u},
 361:.\Generated_Source\PSoC4/cyfitter_cfg.c **** 			{0x4Fu, 0x80u},
 362:.\Generated_Source\PSoC4/cyfitter_cfg.c **** 			{0x56u, 0x01u},
 363:.\Generated_Source\PSoC4/cyfitter_cfg.c **** 			{0x5Au, 0x01u},
 364:.\Generated_Source\PSoC4/cyfitter_cfg.c **** 			{0x5Eu, 0x08u},
 365:.\Generated_Source\PSoC4/cyfitter_cfg.c **** 			{0x60u, 0x06u},
 366:.\Generated_Source\PSoC4/cyfitter_cfg.c **** 			{0x6Cu, 0x20u},
 367:.\Generated_Source\PSoC4/cyfitter_cfg.c **** 			{0x6Du, 0x10u},
 368:.\Generated_Source\PSoC4/cyfitter_cfg.c **** 			{0x6Fu, 0x01u},
 369:.\Generated_Source\PSoC4/cyfitter_cfg.c **** 			{0x77u, 0x26u},
 370:.\Generated_Source\PSoC4/cyfitter_cfg.c **** 			{0x80u, 0x12u},
 371:.\Generated_Source\PSoC4/cyfitter_cfg.c **** 			{0xC0u, 0xFCu},
 372:.\Generated_Source\PSoC4/cyfitter_cfg.c **** 			{0xC2u, 0x78u},
 373:.\Generated_Source\PSoC4/cyfitter_cfg.c **** 			{0xC4u, 0xF3u},
 374:.\Generated_Source\PSoC4/cyfitter_cfg.c **** 			{0xCAu, 0x71u},
 375:.\Generated_Source\PSoC4/cyfitter_cfg.c **** 			{0xCCu, 0xF0u},
 376:.\Generated_Source\PSoC4/cyfitter_cfg.c **** 			{0xCEu, 0xF0u},
 377:.\Generated_Source\PSoC4/cyfitter_cfg.c **** 			{0xD0u, 0xB0u},
 378:.\Generated_Source\PSoC4/cyfitter_cfg.c **** 			{0xD2u, 0x30u},
 379:.\Generated_Source\PSoC4/cyfitter_cfg.c **** 			{0xD6u, 0x41u},
 380:.\Generated_Source\PSoC4/cyfitter_cfg.c **** 			{0xD8u, 0x0Cu},
 381:.\Generated_Source\PSoC4/cyfitter_cfg.c **** 			{0x01u, 0x01u},
 382:.\Generated_Source\PSoC4/cyfitter_cfg.c **** 			{0x02u, 0x08u},
 383:.\Generated_Source\PSoC4/cyfitter_cfg.c **** 			{0x03u, 0x0Au},
ARM GAS  C:\Users\Parthiv\AppData\Local\Temp\ccbTTDig.s 			page 14


 384:.\Generated_Source\PSoC4/cyfitter_cfg.c **** 			{0x04u, 0x13u},
 385:.\Generated_Source\PSoC4/cyfitter_cfg.c **** 			{0x05u, 0x02u},
 386:.\Generated_Source\PSoC4/cyfitter_cfg.c **** 			{0x06u, 0x0Cu},
 387:.\Generated_Source\PSoC4/cyfitter_cfg.c **** 			{0x07u, 0x09u},
 388:.\Generated_Source\PSoC4/cyfitter_cfg.c **** 			{0x08u, 0x80u},
 389:.\Generated_Source\PSoC4/cyfitter_cfg.c **** 			{0x09u, 0x13u},
 390:.\Generated_Source\PSoC4/cyfitter_cfg.c **** 			{0x0Au, 0x20u},
 391:.\Generated_Source\PSoC4/cyfitter_cfg.c **** 			{0x0Cu, 0x13u},
 392:.\Generated_Source\PSoC4/cyfitter_cfg.c **** 			{0x0Eu, 0x04u},
 393:.\Generated_Source\PSoC4/cyfitter_cfg.c **** 			{0x11u, 0x10u},
 394:.\Generated_Source\PSoC4/cyfitter_cfg.c **** 			{0x12u, 0x15u},
 395:.\Generated_Source\PSoC4/cyfitter_cfg.c **** 			{0x14u, 0x20u},
 396:.\Generated_Source\PSoC4/cyfitter_cfg.c **** 			{0x16u, 0xC0u},
 397:.\Generated_Source\PSoC4/cyfitter_cfg.c **** 			{0x18u, 0xE0u},
 398:.\Generated_Source\PSoC4/cyfitter_cfg.c **** 			{0x1Cu, 0x40u},
 399:.\Generated_Source\PSoC4/cyfitter_cfg.c **** 			{0x1Eu, 0x20u},
 400:.\Generated_Source\PSoC4/cyfitter_cfg.c **** 			{0x24u, 0x0Au},
 401:.\Generated_Source\PSoC4/cyfitter_cfg.c **** 			{0x25u, 0x13u},
 402:.\Generated_Source\PSoC4/cyfitter_cfg.c **** 			{0x26u, 0x14u},
 403:.\Generated_Source\PSoC4/cyfitter_cfg.c **** 			{0x28u, 0xE0u},
 404:.\Generated_Source\PSoC4/cyfitter_cfg.c **** 			{0x2Bu, 0x04u},
 405:.\Generated_Source\PSoC4/cyfitter_cfg.c **** 			{0x2Cu, 0x03u},
 406:.\Generated_Source\PSoC4/cyfitter_cfg.c **** 			{0x2Eu, 0x14u},
 407:.\Generated_Source\PSoC4/cyfitter_cfg.c **** 			{0x30u, 0x10u},
 408:.\Generated_Source\PSoC4/cyfitter_cfg.c **** 			{0x31u, 0x0Cu},
 409:.\Generated_Source\PSoC4/cyfitter_cfg.c **** 			{0x32u, 0xE0u},
 410:.\Generated_Source\PSoC4/cyfitter_cfg.c **** 			{0x33u, 0x03u},
 411:.\Generated_Source\PSoC4/cyfitter_cfg.c **** 			{0x34u, 0x0Fu},
 412:.\Generated_Source\PSoC4/cyfitter_cfg.c **** 			{0x35u, 0x10u},
 413:.\Generated_Source\PSoC4/cyfitter_cfg.c **** 			{0x3Au, 0x20u},
 414:.\Generated_Source\PSoC4/cyfitter_cfg.c **** 			{0x3Eu, 0x01u},
 415:.\Generated_Source\PSoC4/cyfitter_cfg.c **** 			{0x3Fu, 0x01u},
 416:.\Generated_Source\PSoC4/cyfitter_cfg.c **** 			{0x40u, 0x35u},
 417:.\Generated_Source\PSoC4/cyfitter_cfg.c **** 			{0x41u, 0x01u},
 418:.\Generated_Source\PSoC4/cyfitter_cfg.c **** 			{0x46u, 0x0Bu},
 419:.\Generated_Source\PSoC4/cyfitter_cfg.c **** 			{0x47u, 0xCEu},
 420:.\Generated_Source\PSoC4/cyfitter_cfg.c **** 			{0x48u, 0x34u},
 421:.\Generated_Source\PSoC4/cyfitter_cfg.c **** 			{0x49u, 0xFFu},
 422:.\Generated_Source\PSoC4/cyfitter_cfg.c **** 			{0x4Au, 0xFFu},
 423:.\Generated_Source\PSoC4/cyfitter_cfg.c **** 			{0x4Bu, 0xFFu},
 424:.\Generated_Source\PSoC4/cyfitter_cfg.c **** 			{0x4Eu, 0xF0u},
 425:.\Generated_Source\PSoC4/cyfitter_cfg.c **** 			{0x4Fu, 0x44u},
 426:.\Generated_Source\PSoC4/cyfitter_cfg.c **** 			{0x50u, 0x0Cu},
 427:.\Generated_Source\PSoC4/cyfitter_cfg.c **** 			{0x54u, 0x01u},
 428:.\Generated_Source\PSoC4/cyfitter_cfg.c **** 			{0x58u, 0x04u},
 429:.\Generated_Source\PSoC4/cyfitter_cfg.c **** 			{0x59u, 0x04u},
 430:.\Generated_Source\PSoC4/cyfitter_cfg.c **** 			{0x5Au, 0x04u},
 431:.\Generated_Source\PSoC4/cyfitter_cfg.c **** 			{0x5Bu, 0x04u},
 432:.\Generated_Source\PSoC4/cyfitter_cfg.c **** 			{0x5Fu, 0x01u},
 433:.\Generated_Source\PSoC4/cyfitter_cfg.c **** 			{0x66u, 0xC0u},
 434:.\Generated_Source\PSoC4/cyfitter_cfg.c **** 			{0x6Au, 0x40u},
 435:.\Generated_Source\PSoC4/cyfitter_cfg.c **** 			{0x6Bu, 0x02u},
 436:.\Generated_Source\PSoC4/cyfitter_cfg.c **** 			{0x82u, 0x03u},
 437:.\Generated_Source\PSoC4/cyfitter_cfg.c **** 			{0x84u, 0x10u},
 438:.\Generated_Source\PSoC4/cyfitter_cfg.c **** 			{0x85u, 0x2Cu},
 439:.\Generated_Source\PSoC4/cyfitter_cfg.c **** 			{0x86u, 0xACu},
 440:.\Generated_Source\PSoC4/cyfitter_cfg.c **** 			{0x87u, 0x43u},
ARM GAS  C:\Users\Parthiv\AppData\Local\Temp\ccbTTDig.s 			page 15


 441:.\Generated_Source\PSoC4/cyfitter_cfg.c **** 			{0x8Eu, 0x20u},
 442:.\Generated_Source\PSoC4/cyfitter_cfg.c **** 			{0x8Fu, 0x08u},
 443:.\Generated_Source\PSoC4/cyfitter_cfg.c **** 			{0x90u, 0x10u},
 444:.\Generated_Source\PSoC4/cyfitter_cfg.c **** 			{0x92u, 0x40u},
 445:.\Generated_Source\PSoC4/cyfitter_cfg.c **** 			{0x9Cu, 0x0Cu},
 446:.\Generated_Source\PSoC4/cyfitter_cfg.c **** 			{0x9Du, 0x71u},
 447:.\Generated_Source\PSoC4/cyfitter_cfg.c **** 			{0x9Eu, 0x71u},
 448:.\Generated_Source\PSoC4/cyfitter_cfg.c **** 			{0x9Fu, 0x0Eu},
 449:.\Generated_Source\PSoC4/cyfitter_cfg.c **** 			{0xA0u, 0x14u},
 450:.\Generated_Source\PSoC4/cyfitter_cfg.c **** 			{0xA1u, 0x80u},
 451:.\Generated_Source\PSoC4/cyfitter_cfg.c **** 			{0xA3u, 0x13u},
 452:.\Generated_Source\PSoC4/cyfitter_cfg.c **** 			{0xA4u, 0xDCu},
 453:.\Generated_Source\PSoC4/cyfitter_cfg.c **** 			{0xA6u, 0x22u},
 454:.\Generated_Source\PSoC4/cyfitter_cfg.c **** 			{0xA9u, 0x71u},
 455:.\Generated_Source\PSoC4/cyfitter_cfg.c **** 			{0xABu, 0x06u},
 456:.\Generated_Source\PSoC4/cyfitter_cfg.c **** 			{0xACu, 0x09u},
 457:.\Generated_Source\PSoC4/cyfitter_cfg.c **** 			{0xAEu, 0xD0u},
 458:.\Generated_Source\PSoC4/cyfitter_cfg.c **** 			{0xAFu, 0x0Cu},
 459:.\Generated_Source\PSoC4/cyfitter_cfg.c **** 			{0xB0u, 0xE0u},
 460:.\Generated_Source\PSoC4/cyfitter_cfg.c **** 			{0xB1u, 0xC0u},
 461:.\Generated_Source\PSoC4/cyfitter_cfg.c **** 			{0xB3u, 0x30u},
 462:.\Generated_Source\PSoC4/cyfitter_cfg.c **** 			{0xB5u, 0x0Fu},
 463:.\Generated_Source\PSoC4/cyfitter_cfg.c **** 			{0xB6u, 0x1Fu},
 464:.\Generated_Source\PSoC4/cyfitter_cfg.c **** 			{0xB9u, 0x0Au},
 465:.\Generated_Source\PSoC4/cyfitter_cfg.c **** 			{0xBAu, 0x02u},
 466:.\Generated_Source\PSoC4/cyfitter_cfg.c **** 			{0xBBu, 0x20u},
 467:.\Generated_Source\PSoC4/cyfitter_cfg.c **** 			{0xBFu, 0x04u},
 468:.\Generated_Source\PSoC4/cyfitter_cfg.c **** 			{0xC0u, 0x06u},
 469:.\Generated_Source\PSoC4/cyfitter_cfg.c **** 			{0xC6u, 0x04u},
 470:.\Generated_Source\PSoC4/cyfitter_cfg.c **** 			{0xC9u, 0xFFu},
 471:.\Generated_Source\PSoC4/cyfitter_cfg.c **** 			{0xCAu, 0x07u},
 472:.\Generated_Source\PSoC4/cyfitter_cfg.c **** 			{0xCBu, 0xFFu},
 473:.\Generated_Source\PSoC4/cyfitter_cfg.c **** 			{0xCCu, 0x40u},
 474:.\Generated_Source\PSoC4/cyfitter_cfg.c **** 			{0xCDu, 0x20u},
 475:.\Generated_Source\PSoC4/cyfitter_cfg.c **** 			{0xCEu, 0xF0u},
 476:.\Generated_Source\PSoC4/cyfitter_cfg.c **** 			{0xCFu, 0x05u},
 477:.\Generated_Source\PSoC4/cyfitter_cfg.c **** 			{0xD0u, 0x08u},
 478:.\Generated_Source\PSoC4/cyfitter_cfg.c **** 			{0xD8u, 0x04u},
 479:.\Generated_Source\PSoC4/cyfitter_cfg.c **** 			{0xD9u, 0x04u},
 480:.\Generated_Source\PSoC4/cyfitter_cfg.c **** 			{0xDAu, 0x04u},
 481:.\Generated_Source\PSoC4/cyfitter_cfg.c **** 			{0xDBu, 0x04u},
 482:.\Generated_Source\PSoC4/cyfitter_cfg.c **** 			{0xDFu, 0x01u},
 483:.\Generated_Source\PSoC4/cyfitter_cfg.c **** 			{0xE0u, 0x40u},
 484:.\Generated_Source\PSoC4/cyfitter_cfg.c **** 			{0xE1u, 0xA8u},
 485:.\Generated_Source\PSoC4/cyfitter_cfg.c **** 			{0xE2u, 0x40u},
 486:.\Generated_Source\PSoC4/cyfitter_cfg.c **** 			{0xE3u, 0x20u},
 487:.\Generated_Source\PSoC4/cyfitter_cfg.c **** 			{0x00u, 0x84u},
 488:.\Generated_Source\PSoC4/cyfitter_cfg.c **** 			{0x03u, 0x80u},
 489:.\Generated_Source\PSoC4/cyfitter_cfg.c **** 			{0x04u, 0x24u},
 490:.\Generated_Source\PSoC4/cyfitter_cfg.c **** 			{0x05u, 0x40u},
 491:.\Generated_Source\PSoC4/cyfitter_cfg.c **** 			{0x07u, 0x80u},
 492:.\Generated_Source\PSoC4/cyfitter_cfg.c **** 			{0x09u, 0x80u},
 493:.\Generated_Source\PSoC4/cyfitter_cfg.c **** 			{0x0Bu, 0x80u},
 494:.\Generated_Source\PSoC4/cyfitter_cfg.c **** 			{0x0Cu, 0x20u},
 495:.\Generated_Source\PSoC4/cyfitter_cfg.c **** 			{0x0Eu, 0x10u},
 496:.\Generated_Source\PSoC4/cyfitter_cfg.c **** 			{0x0Fu, 0x81u},
 497:.\Generated_Source\PSoC4/cyfitter_cfg.c **** 			{0x10u, 0x81u},
ARM GAS  C:\Users\Parthiv\AppData\Local\Temp\ccbTTDig.s 			page 16


 498:.\Generated_Source\PSoC4/cyfitter_cfg.c **** 			{0x13u, 0x84u},
 499:.\Generated_Source\PSoC4/cyfitter_cfg.c **** 			{0x15u, 0x18u},
 500:.\Generated_Source\PSoC4/cyfitter_cfg.c **** 			{0x16u, 0x01u},
 501:.\Generated_Source\PSoC4/cyfitter_cfg.c **** 			{0x1Au, 0x80u},
 502:.\Generated_Source\PSoC4/cyfitter_cfg.c **** 			{0x1Bu, 0x80u},
 503:.\Generated_Source\PSoC4/cyfitter_cfg.c **** 			{0x1Cu, 0x44u},
 504:.\Generated_Source\PSoC4/cyfitter_cfg.c **** 			{0x1Du, 0x10u},
 505:.\Generated_Source\PSoC4/cyfitter_cfg.c **** 			{0x1Eu, 0x10u},
 506:.\Generated_Source\PSoC4/cyfitter_cfg.c **** 			{0x23u, 0x94u},
 507:.\Generated_Source\PSoC4/cyfitter_cfg.c **** 			{0x24u, 0x28u},
 508:.\Generated_Source\PSoC4/cyfitter_cfg.c **** 			{0x25u, 0x04u},
 509:.\Generated_Source\PSoC4/cyfitter_cfg.c **** 			{0x27u, 0x40u},
 510:.\Generated_Source\PSoC4/cyfitter_cfg.c **** 			{0x28u, 0x01u},
 511:.\Generated_Source\PSoC4/cyfitter_cfg.c **** 			{0x29u, 0x11u},
 512:.\Generated_Source\PSoC4/cyfitter_cfg.c **** 			{0x2Au, 0x20u},
 513:.\Generated_Source\PSoC4/cyfitter_cfg.c **** 			{0x2Bu, 0x40u},
 514:.\Generated_Source\PSoC4/cyfitter_cfg.c **** 			{0x2Cu, 0x20u},
 515:.\Generated_Source\PSoC4/cyfitter_cfg.c **** 			{0x2Eu, 0x10u},
 516:.\Generated_Source\PSoC4/cyfitter_cfg.c **** 			{0x31u, 0xC0u},
 517:.\Generated_Source\PSoC4/cyfitter_cfg.c **** 			{0x32u, 0x40u},
 518:.\Generated_Source\PSoC4/cyfitter_cfg.c **** 			{0x37u, 0x01u},
 519:.\Generated_Source\PSoC4/cyfitter_cfg.c **** 			{0x39u, 0x08u},
 520:.\Generated_Source\PSoC4/cyfitter_cfg.c **** 			{0x3Bu, 0x84u},
 521:.\Generated_Source\PSoC4/cyfitter_cfg.c **** 			{0x3Du, 0x18u},
 522:.\Generated_Source\PSoC4/cyfitter_cfg.c **** 			{0x3Fu, 0x01u},
 523:.\Generated_Source\PSoC4/cyfitter_cfg.c **** 			{0x45u, 0x80u},
 524:.\Generated_Source\PSoC4/cyfitter_cfg.c **** 			{0x46u, 0x20u},
 525:.\Generated_Source\PSoC4/cyfitter_cfg.c **** 			{0x48u, 0x40u},
 526:.\Generated_Source\PSoC4/cyfitter_cfg.c **** 			{0x49u, 0x01u},
 527:.\Generated_Source\PSoC4/cyfitter_cfg.c **** 			{0x4Bu, 0x10u},
 528:.\Generated_Source\PSoC4/cyfitter_cfg.c **** 			{0x4Fu, 0x80u},
 529:.\Generated_Source\PSoC4/cyfitter_cfg.c **** 			{0x53u, 0x40u},
 530:.\Generated_Source\PSoC4/cyfitter_cfg.c **** 			{0x54u, 0x89u},
 531:.\Generated_Source\PSoC4/cyfitter_cfg.c **** 			{0x56u, 0x01u},
 532:.\Generated_Source\PSoC4/cyfitter_cfg.c **** 			{0x57u, 0x08u},
 533:.\Generated_Source\PSoC4/cyfitter_cfg.c **** 			{0x5Cu, 0x62u},
 534:.\Generated_Source\PSoC4/cyfitter_cfg.c **** 			{0x5Fu, 0x08u},
 535:.\Generated_Source\PSoC4/cyfitter_cfg.c **** 			{0x68u, 0x04u},
 536:.\Generated_Source\PSoC4/cyfitter_cfg.c **** 			{0x69u, 0x44u},
 537:.\Generated_Source\PSoC4/cyfitter_cfg.c **** 			{0x80u, 0x40u},
 538:.\Generated_Source\PSoC4/cyfitter_cfg.c **** 			{0x81u, 0x50u},
 539:.\Generated_Source\PSoC4/cyfitter_cfg.c **** 			{0x83u, 0x01u},
 540:.\Generated_Source\PSoC4/cyfitter_cfg.c **** 			{0x84u, 0x25u},
 541:.\Generated_Source\PSoC4/cyfitter_cfg.c **** 			{0x89u, 0x04u},
 542:.\Generated_Source\PSoC4/cyfitter_cfg.c **** 			{0x8Cu, 0x02u},
 543:.\Generated_Source\PSoC4/cyfitter_cfg.c **** 			{0x8Fu, 0x08u},
 544:.\Generated_Source\PSoC4/cyfitter_cfg.c **** 			{0x91u, 0x10u},
 545:.\Generated_Source\PSoC4/cyfitter_cfg.c **** 			{0x94u, 0xA8u},
 546:.\Generated_Source\PSoC4/cyfitter_cfg.c **** 			{0x96u, 0x10u},
 547:.\Generated_Source\PSoC4/cyfitter_cfg.c **** 			{0x9Bu, 0x09u},
 548:.\Generated_Source\PSoC4/cyfitter_cfg.c **** 			{0x9Fu, 0x40u},
 549:.\Generated_Source\PSoC4/cyfitter_cfg.c **** 			{0xA0u, 0x20u},
 550:.\Generated_Source\PSoC4/cyfitter_cfg.c **** 			{0xA4u, 0x08u},
 551:.\Generated_Source\PSoC4/cyfitter_cfg.c **** 			{0xA5u, 0x10u},
 552:.\Generated_Source\PSoC4/cyfitter_cfg.c **** 			{0xA7u, 0x80u},
 553:.\Generated_Source\PSoC4/cyfitter_cfg.c **** 			{0xABu, 0x01u},
 554:.\Generated_Source\PSoC4/cyfitter_cfg.c **** 			{0xAEu, 0x12u},
ARM GAS  C:\Users\Parthiv\AppData\Local\Temp\ccbTTDig.s 			page 17


 555:.\Generated_Source\PSoC4/cyfitter_cfg.c **** 			{0xC0u, 0xFDu},
 556:.\Generated_Source\PSoC4/cyfitter_cfg.c **** 			{0xC2u, 0xF9u},
 557:.\Generated_Source\PSoC4/cyfitter_cfg.c **** 			{0xC4u, 0xEDu},
 558:.\Generated_Source\PSoC4/cyfitter_cfg.c **** 			{0xCAu, 0x6Du},
 559:.\Generated_Source\PSoC4/cyfitter_cfg.c **** 			{0xCCu, 0x88u},
 560:.\Generated_Source\PSoC4/cyfitter_cfg.c **** 			{0xCEu, 0xEAu},
 561:.\Generated_Source\PSoC4/cyfitter_cfg.c **** 			{0xD0u, 0x50u},
 562:.\Generated_Source\PSoC4/cyfitter_cfg.c **** 			{0xD2u, 0x14u},
 563:.\Generated_Source\PSoC4/cyfitter_cfg.c **** 			{0xD6u, 0xF0u},
 564:.\Generated_Source\PSoC4/cyfitter_cfg.c **** 			{0xE4u, 0x06u},
 565:.\Generated_Source\PSoC4/cyfitter_cfg.c **** 			{0x0Au, 0x10u},
 566:.\Generated_Source\PSoC4/cyfitter_cfg.c **** 			{0x5Bu, 0x04u},
 567:.\Generated_Source\PSoC4/cyfitter_cfg.c **** 			{0x82u, 0x10u},
 568:.\Generated_Source\PSoC4/cyfitter_cfg.c **** 			{0x9Bu, 0x04u},
 569:.\Generated_Source\PSoC4/cyfitter_cfg.c **** 			{0xABu, 0x04u},
 570:.\Generated_Source\PSoC4/cyfitter_cfg.c **** 			{0xC2u, 0x10u},
 571:.\Generated_Source\PSoC4/cyfitter_cfg.c **** 			{0xD6u, 0x40u},
 572:.\Generated_Source\PSoC4/cyfitter_cfg.c **** 			{0xE0u, 0x80u},
 573:.\Generated_Source\PSoC4/cyfitter_cfg.c **** 			{0xEAu, 0x80u},
 574:.\Generated_Source\PSoC4/cyfitter_cfg.c **** 			{0x60u, 0x80u},
 575:.\Generated_Source\PSoC4/cyfitter_cfg.c **** 			{0xD8u, 0x02u},
 576:.\Generated_Source\PSoC4/cyfitter_cfg.c **** 			{0x5Au, 0x02u},
 577:.\Generated_Source\PSoC4/cyfitter_cfg.c **** 			{0x67u, 0x02u},
 578:.\Generated_Source\PSoC4/cyfitter_cfg.c **** 			{0x83u, 0x01u},
 579:.\Generated_Source\PSoC4/cyfitter_cfg.c **** 			{0x86u, 0x01u},
 580:.\Generated_Source\PSoC4/cyfitter_cfg.c **** 			{0x88u, 0x80u},
 581:.\Generated_Source\PSoC4/cyfitter_cfg.c **** 			{0x9Cu, 0x80u},
 582:.\Generated_Source\PSoC4/cyfitter_cfg.c **** 			{0xD6u, 0x03u},
 583:.\Generated_Source\PSoC4/cyfitter_cfg.c **** 			{0xE0u, 0x04u},
 584:.\Generated_Source\PSoC4/cyfitter_cfg.c **** 			{0x10u, 0x01u},
 585:.\Generated_Source\PSoC4/cyfitter_cfg.c **** 			{0x11u, 0x01u},
 586:.\Generated_Source\PSoC4/cyfitter_cfg.c **** 		};
 587:.\Generated_Source\PSoC4/cyfitter_cfg.c **** 
 588:.\Generated_Source\PSoC4/cyfitter_cfg.c **** 
 589:.\Generated_Source\PSoC4/cyfitter_cfg.c **** 
 590:.\Generated_Source\PSoC4/cyfitter_cfg.c **** 		CYPACKED typedef struct {
 591:.\Generated_Source\PSoC4/cyfitter_cfg.c **** 			void CYFAR *address;
 592:.\Generated_Source\PSoC4/cyfitter_cfg.c **** 			uint16 size;
 593:.\Generated_Source\PSoC4/cyfitter_cfg.c **** 		} CYPACKED_ATTR cfg_memset_t;
 594:.\Generated_Source\PSoC4/cyfitter_cfg.c **** 
 595:.\Generated_Source\PSoC4/cyfitter_cfg.c **** 
 596:.\Generated_Source\PSoC4/cyfitter_cfg.c **** 		CYPACKED typedef struct {
 597:.\Generated_Source\PSoC4/cyfitter_cfg.c **** 			void CYFAR *dest;
 598:.\Generated_Source\PSoC4/cyfitter_cfg.c **** 			const void CYCODE *src;
 599:.\Generated_Source\PSoC4/cyfitter_cfg.c **** 			uint16 size;
 600:.\Generated_Source\PSoC4/cyfitter_cfg.c **** 		} CYPACKED_ATTR cfg_memcpy_t;
 601:.\Generated_Source\PSoC4/cyfitter_cfg.c **** 
 602:.\Generated_Source\PSoC4/cyfitter_cfg.c **** 		static const cfg_memset_t CYCODE cfg_memset_list [] = {
 603:.\Generated_Source\PSoC4/cyfitter_cfg.c **** 			/* address, size */
 604:.\Generated_Source\PSoC4/cyfitter_cfg.c **** 			{(void CYFAR *)(CYDEV_UDB_P0_U0_BASE), 128u},
 605:.\Generated_Source\PSoC4/cyfitter_cfg.c **** 			{(void CYFAR *)(CYDEV_UDB_P0_ROUTE_BASE), 768u},
 606:.\Generated_Source\PSoC4/cyfitter_cfg.c **** 			{(void CYFAR *)(CYDEV_UDB_DSI0_BASE), 1024u},
 607:.\Generated_Source\PSoC4/cyfitter_cfg.c **** 		};
 608:.\Generated_Source\PSoC4/cyfitter_cfg.c **** 
 609:.\Generated_Source\PSoC4/cyfitter_cfg.c **** 		/* UDB_0_1_1_CONFIG Address: CYDEV_UDB_P0_U1_BASE Size (bytes): 128 */
 610:.\Generated_Source\PSoC4/cyfitter_cfg.c **** 		static const uint8 CYCODE BS_UDB_0_1_1_CONFIG_VAL[] = {
 611:.\Generated_Source\PSoC4/cyfitter_cfg.c **** 			0x1Cu, 0x3Cu, 0xE3u, 0x41u, 0x00u, 0x67u, 0xF3u, 0x18u, 0x82u, 0x04u, 0x00u, 0x00u, 0x41u, 0x3Cu
ARM GAS  C:\Users\Parthiv\AppData\Local\Temp\ccbTTDig.s 			page 18


 612:.\Generated_Source\PSoC4/cyfitter_cfg.c **** 			0xFFu, 0x10u, 0x00u, 0x00u, 0xC3u, 0x08u, 0x00u, 0x00u, 0xF3u, 0x18u, 0x0Cu, 0x00u, 0x00u, 0x7Fu
 613:.\Generated_Source\PSoC4/cyfitter_cfg.c **** 			0x08u, 0x00u, 0x00u, 0x00u, 0x04u, 0x00u, 0x00u, 0x03u, 0x0Cu, 0x80u, 0x00u, 0x00u, 0x0Fu, 0x00u
 614:.\Generated_Source\PSoC4/cyfitter_cfg.c **** 			0x1Cu, 0x1Fu, 0x2Cu, 0x20u, 0x0Fu, 0x80u, 0xC0u, 0x40u, 0x00u, 0x80u, 0x28u, 0x02u, 0x00u, 0x00u
 615:.\Generated_Source\PSoC4/cyfitter_cfg.c **** 			0x26u, 0x05u, 0x04u, 0x00u, 0x01u, 0x0Cu, 0x00u, 0xE0u, 0x21u, 0xFFu, 0xFFu, 0xFFu, 0x62u, 0xA0u
 616:.\Generated_Source\PSoC4/cyfitter_cfg.c **** 			0x0Cu, 0x00u, 0x00u, 0x00u, 0x00u, 0x00u, 0x02u, 0x12u, 0x04u, 0x04u, 0x04u, 0x04u, 0x00u, 0x00u
 617:.\Generated_Source\PSoC4/cyfitter_cfg.c **** 			0x00u, 0x00u, 0x00u, 0x00u, 0x00u, 0x00u, 0x40u, 0x02u, 0x00u, 0x10u, 0x30u, 0x10u, 0x00u, 0x10u
 618:.\Generated_Source\PSoC4/cyfitter_cfg.c **** 			0x00u, 0x00u, 0x00u, 0x00u, 0x00u, 0x00u, 0x00u, 0x00u, 0x00u, 0x00u, 0x00u, 0x00u, 0x00u, 0x00u
 619:.\Generated_Source\PSoC4/cyfitter_cfg.c **** 
 620:.\Generated_Source\PSoC4/cyfitter_cfg.c **** 		static const cfg_memcpy_t CYCODE cfg_memcpy_list [] = {
 621:.\Generated_Source\PSoC4/cyfitter_cfg.c **** 			/* dest, src, size */
 622:.\Generated_Source\PSoC4/cyfitter_cfg.c **** 			{(void CYFAR *)(CYDEV_UDB_P0_U1_BASE), BS_UDB_0_1_1_CONFIG_VAL, 128u},
 623:.\Generated_Source\PSoC4/cyfitter_cfg.c **** 		};
 624:.\Generated_Source\PSoC4/cyfitter_cfg.c **** 
 625:.\Generated_Source\PSoC4/cyfitter_cfg.c **** 		uint8 CYDATA i;
 626:.\Generated_Source\PSoC4/cyfitter_cfg.c **** 
 627:.\Generated_Source\PSoC4/cyfitter_cfg.c **** 		/* Zero out critical memory blocks before beginning configuration */
 628:.\Generated_Source\PSoC4/cyfitter_cfg.c **** 		for (i = 0u; i < (sizeof(cfg_memset_list)/sizeof(cfg_memset_list[0])); i++)
 328              		.loc 1 628 0
 329 00da 0024     		mov	r4, #0
 330 00dc 10E0     		b	.L15
 331              	.LVL26:
 332              	.L16:
 333              	.LBB4:
 629:.\Generated_Source\PSoC4/cyfitter_cfg.c **** 		{
 630:.\Generated_Source\PSoC4/cyfitter_cfg.c **** 			const cfg_memset_t CYCODE * CYDATA ms = &cfg_memset_list[i];
 631:.\Generated_Source\PSoC4/cyfitter_cfg.c **** 			CYMEMZERO(ms->address, (size_t)(uint32)(ms->size));
 334              		.loc 1 631 0 discriminator 3
 335 00de 4B48     		ldr	r0, .L19+4
 336 00e0 6300     		lsl	r3, r4, #1
 337 00e2 1A19     		add	r2, r3, r4
 338 00e4 5200     		lsl	r2, r2, #1
 339 00e6 8218     		add	r2, r0, r2
 340 00e8 9188     		ldrh	r1, [r2, #4]
 341 00ea 1B19     		add	r3, r3, r4
 342 00ec 5B00     		lsl	r3, r3, #1
 343 00ee 1A5A     		ldrh	r2, [r3, r0]
 344 00f0 C318     		add	r3, r0, r3
 345 00f2 5888     		ldrh	r0, [r3, #2]
 346 00f4 0004     		lsl	r0, r0, #16
 347 00f6 1043     		orr	r0, r2
 348 00f8 FFF7FEFF 		bl	CYMEMZERO
 349              	.LVL27:
 350              	.LBE4:
 628:.\Generated_Source\PSoC4/cyfitter_cfg.c **** 		{
 351              		.loc 1 628 0 discriminator 3
 352 00fc 0134     		add	r4, r4, #1
 353              	.LVL28:
 354 00fe E4B2     		uxtb	r4, r4
 355              	.LVL29:
 356              	.L15:
 628:.\Generated_Source\PSoC4/cyfitter_cfg.c **** 		{
 357              		.loc 1 628 0 is_stmt 0 discriminator 1
 358 0100 022C     		cmp	r4, #2
 359 0102 ECD9     		bls	.L16
 360 0104 0024     		mov	r4, #0
 361              	.LVL30:
 362 0106 12E0     		b	.L17
ARM GAS  C:\Users\Parthiv\AppData\Local\Temp\ccbTTDig.s 			page 19


 363              	.LVL31:
 364              	.L18:
 365              	.LBB5:
 632:.\Generated_Source\PSoC4/cyfitter_cfg.c **** 		}
 633:.\Generated_Source\PSoC4/cyfitter_cfg.c **** 
 634:.\Generated_Source\PSoC4/cyfitter_cfg.c **** 		/* Copy device configuration data into registers */
 635:.\Generated_Source\PSoC4/cyfitter_cfg.c **** 		for (i = 0u; i < (sizeof(cfg_memcpy_list)/sizeof(cfg_memcpy_list[0])); i++)
 636:.\Generated_Source\PSoC4/cyfitter_cfg.c **** 		{
 637:.\Generated_Source\PSoC4/cyfitter_cfg.c **** 			const cfg_memcpy_t CYCODE * CYDATA mc = &cfg_memcpy_list[i];
 638:.\Generated_Source\PSoC4/cyfitter_cfg.c **** 			void * CYDATA destPtr = mc->dest;
 366              		.loc 1 638 0 is_stmt 1 discriminator 3
 367 0108 404D     		ldr	r5, .L19+4
 368 010a A300     		lsl	r3, r4, #2
 369 010c 1A19     		add	r2, r3, r4
 370 010e 5200     		lsl	r2, r2, #1
 371 0110 AA18     		add	r2, r5, r2
 372 0112 918A     		ldrh	r1, [r2, #20]
 373 0114 D08A     		ldrh	r0, [r2, #22]
 374 0116 0004     		lsl	r0, r0, #16
 375 0118 0843     		orr	r0, r1
 376              	.LVL32:
 639:.\Generated_Source\PSoC4/cyfitter_cfg.c **** 			const void CYCODE * CYDATA srcPtr = mc->src;
 377              		.loc 1 639 0 discriminator 3
 378 011a 131C     		mov	r3, r2
 379 011c 128B     		ldrh	r2, [r2, #24]
 380 011e 598B     		ldrh	r1, [r3, #26]
 381 0120 0904     		lsl	r1, r1, #16
 382 0122 1143     		orr	r1, r2
 383              	.LVL33:
 640:.\Generated_Source\PSoC4/cyfitter_cfg.c **** 			uint16 CYDATA numBytes = mc->size;
 641:.\Generated_Source\PSoC4/cyfitter_cfg.c **** 			CYCONFIGCPYCODE(destPtr, srcPtr, numBytes);
 384              		.loc 1 641 0 discriminator 3
 385 0124 8022     		mov	r2, #128
 386 0126 FFF7FEFF 		bl	CYCONFIGCPYCODE
 387              	.LVL34:
 388              	.LBE5:
 635:.\Generated_Source\PSoC4/cyfitter_cfg.c **** 		{
 389              		.loc 1 635 0 discriminator 3
 390 012a 0134     		add	r4, r4, #1
 391              	.LVL35:
 392 012c E4B2     		uxtb	r4, r4
 393              	.LVL36:
 394              	.L17:
 635:.\Generated_Source\PSoC4/cyfitter_cfg.c **** 		{
 395              		.loc 1 635 0 is_stmt 0 discriminator 1
 396 012e 002C     		cmp	r4, #0
 397 0130 EAD0     		beq	.L18
 642:.\Generated_Source\PSoC4/cyfitter_cfg.c **** 		}
 643:.\Generated_Source\PSoC4/cyfitter_cfg.c **** 
 644:.\Generated_Source\PSoC4/cyfitter_cfg.c **** 		cfg_write_bytes32(cy_cfg_addr_table, cy_cfg_data_table);
 398              		.loc 1 644 0 is_stmt 1
 399 0132 3649     		ldr	r1, .L19+4
 400 0134 081C     		mov	r0, r1
 401 0136 2030     		add	r0, r0, #32
 402 0138 4431     		add	r1, r1, #68
 403 013a FFF7FEFF 		bl	cfg_write_bytes32
 404              	.LVL37:
ARM GAS  C:\Users\Parthiv\AppData\Local\Temp\ccbTTDig.s 			page 20


 645:.\Generated_Source\PSoC4/cyfitter_cfg.c **** 
 646:.\Generated_Source\PSoC4/cyfitter_cfg.c **** 		/* Perform normal device configuration. Order is not critical for these items. */
 647:.\Generated_Source\PSoC4/cyfitter_cfg.c **** 		CY_SET_XTND_REG16((void CYFAR *)(CYREG_UDB_BCTL0_DRV), 0x0100u);
 405              		.loc 1 647 0
 406 013e 8022     		mov	r2, #128
 407 0140 5200     		lsl	r2, r2, #1
 408 0142 334B     		ldr	r3, .L19+8
 409 0144 1A80     		strh	r2, [r3]
 648:.\Generated_Source\PSoC4/cyfitter_cfg.c **** 		CY_SET_XTND_REG8((void CYFAR *)(CYREG_UDB_BCTL0_DRV + 0x2u), 0x01u);
 410              		.loc 1 648 0
 411 0146 FF3A     		sub	r2, r2, #255
 412 0148 324B     		ldr	r3, .L19+12
 413 014a 1A70     		strb	r2, [r3]
 649:.\Generated_Source\PSoC4/cyfitter_cfg.c **** 
 650:.\Generated_Source\PSoC4/cyfitter_cfg.c **** 		/* HSIOM Starting address: CYDEV_HSIOM_BASE */
 651:.\Generated_Source\PSoC4/cyfitter_cfg.c **** 		CY_SET_XTND_REG32((void CYFAR *)(CYDEV_HSIOM_BASE), 0xEE000000u);
 414              		.loc 1 651 0
 415 014c EE22     		mov	r2, #238
 416 014e 1206     		lsl	r2, r2, #24
 417 0150 314B     		ldr	r3, .L19+16
 418 0152 1A60     		str	r2, [r3]
 652:.\Generated_Source\PSoC4/cyfitter_cfg.c **** 		CY_SET_XTND_REG32((void CYFAR *)(CYREG_HSIOM_PORT_SEL1), 0x00300000u);
 419              		.loc 1 652 0
 420 0154 C022     		mov	r2, #192
 421 0156 9203     		lsl	r2, r2, #14
 422 0158 304B     		ldr	r3, .L19+20
 423 015a 1A60     		str	r2, [r3]
 653:.\Generated_Source\PSoC4/cyfitter_cfg.c **** 		CY_SET_XTND_REG32((void CYFAR *)(CYREG_HSIOM_PORT_SEL2), 0x03000000u);
 424              		.loc 1 653 0
 425 015c C022     		mov	r2, #192
 426 015e 9204     		lsl	r2, r2, #18
 427 0160 2F4B     		ldr	r3, .L19+24
 428 0162 1A60     		str	r2, [r3]
 654:.\Generated_Source\PSoC4/cyfitter_cfg.c **** 		CY_SET_XTND_REG32((void CYFAR *)(CYREG_HSIOM_PORT_SEL3), 0x33000000u);
 429              		.loc 1 654 0
 430 0164 CC22     		mov	r2, #204
 431 0166 9205     		lsl	r2, r2, #22
 432 0168 2E4B     		ldr	r3, .L19+28
 433 016a 1A60     		str	r2, [r3]
 655:.\Generated_Source\PSoC4/cyfitter_cfg.c **** 
 656:.\Generated_Source\PSoC4/cyfitter_cfg.c **** 		/* UDB_PA_0 Starting address: CYDEV_UDB_PA0_BASE */
 657:.\Generated_Source\PSoC4/cyfitter_cfg.c **** 		CY_SET_XTND_REG32((void CYFAR *)(CYDEV_UDB_PA0_BASE), 0x00990000u);
 434              		.loc 1 657 0
 435 016c 9923     		mov	r3, #153
 436 016e 1B04     		lsl	r3, r3, #16
 437 0170 2D4A     		ldr	r2, .L19+32
 438 0172 1360     		str	r3, [r2]
 658:.\Generated_Source\PSoC4/cyfitter_cfg.c **** 
 659:.\Generated_Source\PSoC4/cyfitter_cfg.c **** 		/* UDB_PA_1 Starting address: CYDEV_UDB_PA1_BASE */
 660:.\Generated_Source\PSoC4/cyfitter_cfg.c **** 		CY_SET_XTND_REG32((void CYFAR *)(CYDEV_UDB_PA1_BASE), 0x00990004u);
 439              		.loc 1 660 0
 440 0174 2D49     		ldr	r1, .L19+36
 441 0176 2E4A     		ldr	r2, .L19+40
 442 0178 1160     		str	r1, [r2]
 661:.\Generated_Source\PSoC4/cyfitter_cfg.c **** 		CY_SET_XTND_REG32((void CYFAR *)(CYREG_UDB_PA1_CFG4), 0x02000000u);
 443              		.loc 1 661 0
 444 017a 8021     		mov	r1, #128
ARM GAS  C:\Users\Parthiv\AppData\Local\Temp\ccbTTDig.s 			page 21


 445 017c 8904     		lsl	r1, r1, #18
 446 017e 2D4A     		ldr	r2, .L19+44
 447 0180 1160     		str	r1, [r2]
 662:.\Generated_Source\PSoC4/cyfitter_cfg.c **** 		CY_SET_XTND_REG32((void CYFAR *)(CYREG_UDB_PA1_CFG8), 0x51000000u);
 448              		.loc 1 662 0
 449 0182 A221     		mov	r1, #162
 450 0184 C905     		lsl	r1, r1, #23
 451 0186 2C4A     		ldr	r2, .L19+48
 452 0188 1160     		str	r1, [r2]
 663:.\Generated_Source\PSoC4/cyfitter_cfg.c **** 
 664:.\Generated_Source\PSoC4/cyfitter_cfg.c **** 		/* UDB_PA_2 Starting address: CYDEV_UDB_PA2_BASE */
 665:.\Generated_Source\PSoC4/cyfitter_cfg.c **** 		CY_SET_XTND_REG32((void CYFAR *)(CYDEV_UDB_PA2_BASE), 0x00990000u);
 453              		.loc 1 665 0
 454 018a 2C4A     		ldr	r2, .L19+52
 455 018c 1360     		str	r3, [r2]
 666:.\Generated_Source\PSoC4/cyfitter_cfg.c **** 		CY_SET_XTND_REG32((void CYFAR *)(CYREG_UDB_PA2_CFG4), 0x80000000u);
 456              		.loc 1 666 0
 457 018e 8021     		mov	r1, #128
 458 0190 0906     		lsl	r1, r1, #24
 459 0192 2B4A     		ldr	r2, .L19+56
 460 0194 1160     		str	r1, [r2]
 667:.\Generated_Source\PSoC4/cyfitter_cfg.c **** 		CY_SET_XTND_REG32((void CYFAR *)(CYREG_UDB_PA2_CFG8), 0x20000000u);
 461              		.loc 1 667 0
 462 0196 8021     		mov	r1, #128
 463 0198 8905     		lsl	r1, r1, #22
 464 019a 2A4A     		ldr	r2, .L19+60
 465 019c 1160     		str	r1, [r2]
 668:.\Generated_Source\PSoC4/cyfitter_cfg.c **** 
 669:.\Generated_Source\PSoC4/cyfitter_cfg.c **** 		/* UDB_PA_3 Starting address: CYDEV_UDB_PA3_BASE */
 670:.\Generated_Source\PSoC4/cyfitter_cfg.c **** 		CY_SET_XTND_REG32((void CYFAR *)(CYDEV_UDB_PA3_BASE), 0x00990000u);
 466              		.loc 1 670 0
 467 019e 2A4A     		ldr	r2, .L19+64
 468 01a0 1360     		str	r3, [r2]
 671:.\Generated_Source\PSoC4/cyfitter_cfg.c **** 		CY_SET_XTND_REG32((void CYFAR *)(CYREG_UDB_PA3_CFG8), 0x1A000000u);
 469              		.loc 1 671 0
 470 01a2 D022     		mov	r2, #208
 471 01a4 5205     		lsl	r2, r2, #21
 472 01a6 294B     		ldr	r3, .L19+68
 473 01a8 1A60     		str	r2, [r3]
 672:.\Generated_Source\PSoC4/cyfitter_cfg.c **** 
 673:.\Generated_Source\PSoC4/cyfitter_cfg.c **** 		/* Enable digital routing */
 674:.\Generated_Source\PSoC4/cyfitter_cfg.c **** 		CY_SET_XTND_REG8((void *)CYREG_UDB_UDBIF_BANK_CTL, CY_GET_XTND_REG8((void *)CYREG_UDB_UDBIF_BANK_
 474              		.loc 1 674 0
 475 01aa 294B     		ldr	r3, .L19+72
 476 01ac 1978     		ldrb	r1, [r3]
 477 01ae 0222     		mov	r2, #2
 478 01b0 0A43     		orr	r2, r1
 479 01b2 1A70     		strb	r2, [r3]
 675:.\Generated_Source\PSoC4/cyfitter_cfg.c **** 
 676:.\Generated_Source\PSoC4/cyfitter_cfg.c **** 		/* Enable UDB array */
 677:.\Generated_Source\PSoC4/cyfitter_cfg.c **** 		CY_SET_XTND_REG8((void *)CYREG_UDB_UDBIF_WAIT_CFG, (uint8)((CY_GET_XTND_REG8((void *)CYREG_UDB_UD
 480              		.loc 1 677 0
 481 01b4 2748     		ldr	r0, .L19+76
 482 01b6 0278     		ldrb	r2, [r0]
 483 01b8 3C21     		mov	r1, #60
 484 01ba 8A43     		bic	r2, r1
 485 01bc 2839     		sub	r1, r1, #40
ARM GAS  C:\Users\Parthiv\AppData\Local\Temp\ccbTTDig.s 			page 22


 486 01be 0A43     		orr	r2, r1
 487 01c0 0270     		strb	r2, [r0]
 678:.\Generated_Source\PSoC4/cyfitter_cfg.c **** 		CY_SET_XTND_REG8((void *)CYREG_UDB_UDBIF_BANK_CTL, (uint8)(CY_GET_XTND_REG8((void *)CYREG_UDB_UDB
 488              		.loc 1 678 0
 489 01c2 1978     		ldrb	r1, [r3]
 490 01c4 1622     		mov	r2, #22
 491 01c6 0A43     		orr	r2, r1
 492 01c8 1A70     		strb	r2, [r3]
 493              	.LBE3:
 679:.\Generated_Source\PSoC4/cyfitter_cfg.c **** 	}
 680:.\Generated_Source\PSoC4/cyfitter_cfg.c **** 
 681:.\Generated_Source\PSoC4/cyfitter_cfg.c **** 	/* Perform second pass device configuration. These items must be configured in specific order afte
 682:.\Generated_Source\PSoC4/cyfitter_cfg.c **** 	/* IOPINS0_0 Starting address: CYDEV_GPIO_PRT0_BASE */
 683:.\Generated_Source\PSoC4/cyfitter_cfg.c **** 	CY_SET_XTND_REG32((void CYFAR *)(CYREG_GPIO_PRT0_PC), 0x00D80000u);
 494              		.loc 1 683 0
 495 01ca D823     		mov	r3, #216
 496 01cc 1B04     		lsl	r3, r3, #16
 497 01ce 224A     		ldr	r2, .L19+80
 498 01d0 1360     		str	r3, [r2]
 684:.\Generated_Source\PSoC4/cyfitter_cfg.c **** 
 685:.\Generated_Source\PSoC4/cyfitter_cfg.c **** 	/* IOPINS0_1 Starting address: CYDEV_GPIO_PRT1_BASE */
 686:.\Generated_Source\PSoC4/cyfitter_cfg.c **** 	CY_SET_XTND_REG32((void CYFAR *)(CYDEV_GPIO_PRT1_BASE), 0x00000020u);
 499              		.loc 1 686 0
 500 01d2 2021     		mov	r1, #32
 501 01d4 214A     		ldr	r2, .L19+84
 502 01d6 1160     		str	r1, [r2]
 687:.\Generated_Source\PSoC4/cyfitter_cfg.c **** 	CY_SET_XTND_REG32((void CYFAR *)(CYREG_GPIO_PRT1_PC), 0x00031D80u);
 503              		.loc 1 687 0
 504 01d8 2149     		ldr	r1, .L19+88
 505 01da 224A     		ldr	r2, .L19+92
 506 01dc 1160     		str	r1, [r2]
 688:.\Generated_Source\PSoC4/cyfitter_cfg.c **** 
 689:.\Generated_Source\PSoC4/cyfitter_cfg.c **** 	/* IOPINS0_2 Starting address: CYDEV_GPIO_PRT2_BASE */
 690:.\Generated_Source\PSoC4/cyfitter_cfg.c **** 	CY_SET_XTND_REG32((void CYFAR *)(CYDEV_GPIO_PRT2_BASE), 0x000000C0u);
 507              		.loc 1 690 0
 508 01de C022     		mov	r2, #192
 509 01e0 2149     		ldr	r1, .L19+96
 510 01e2 0A60     		str	r2, [r1]
 691:.\Generated_Source\PSoC4/cyfitter_cfg.c **** 	CY_SET_XTND_REG32((void CYFAR *)(CYREG_GPIO_PRT2_PC), 0x00580000u);
 511              		.loc 1 691 0
 512 01e4 B020     		mov	r0, #176
 513 01e6 C003     		lsl	r0, r0, #15
 514 01e8 2049     		ldr	r1, .L19+100
 515 01ea 0860     		str	r0, [r1]
 692:.\Generated_Source\PSoC4/cyfitter_cfg.c **** 	CY_SET_XTND_REG32((void CYFAR *)(CYREG_GPIO_PRT2_INTR_CFG), 0x00004000u);
 516              		.loc 1 692 0
 517 01ec 8020     		mov	r0, #128
 518 01ee C001     		lsl	r0, r0, #7
 519 01f0 1F49     		ldr	r1, .L19+104
 520 01f2 0860     		str	r0, [r1]
 693:.\Generated_Source\PSoC4/cyfitter_cfg.c **** 
 694:.\Generated_Source\PSoC4/cyfitter_cfg.c **** 	/* IOPINS0_3 Starting address: CYDEV_GPIO_PRT3_BASE */
 695:.\Generated_Source\PSoC4/cyfitter_cfg.c **** 	CY_SET_XTND_REG32((void CYFAR *)(CYDEV_GPIO_PRT3_BASE), 0x000000C0u);
 521              		.loc 1 695 0
 522 01f4 1F49     		ldr	r1, .L19+108
 523 01f6 0A60     		str	r2, [r1]
 696:.\Generated_Source\PSoC4/cyfitter_cfg.c **** 	CY_SET_XTND_REG32((void CYFAR *)(CYREG_GPIO_PRT3_PC), 0x00D80000u);
ARM GAS  C:\Users\Parthiv\AppData\Local\Temp\ccbTTDig.s 			page 23


 524              		.loc 1 696 0
 525 01f8 1F4A     		ldr	r2, .L19+112
 526 01fa 1360     		str	r3, [r2]
 697:.\Generated_Source\PSoC4/cyfitter_cfg.c **** 
 698:.\Generated_Source\PSoC4/cyfitter_cfg.c **** 
 699:.\Generated_Source\PSoC4/cyfitter_cfg.c **** 	/* Setup clocks based on selections from Clock DWR */
 700:.\Generated_Source\PSoC4/cyfitter_cfg.c **** 	ClockSetup();
 527              		.loc 1 700 0
 528 01fc FFF700FF 		bl	ClockSetup
 529              	.LVL38:
 701:.\Generated_Source\PSoC4/cyfitter_cfg.c **** 
 702:.\Generated_Source\PSoC4/cyfitter_cfg.c **** 	/* Perform basic analog initialization to defaults */
 703:.\Generated_Source\PSoC4/cyfitter_cfg.c **** 	AnalogSetDefault();
 530              		.loc 1 703 0
 531 0200 FFF7FEFF 		bl	AnalogSetDefault
 532              	.LVL39:
 704:.\Generated_Source\PSoC4/cyfitter_cfg.c **** 
 705:.\Generated_Source\PSoC4/cyfitter_cfg.c **** }
 533              		.loc 1 705 0
 534              		@ sp needed
 535              	.LVL40:
 536 0204 38BD     		pop	{r3, r4, r5, pc}
 537              	.L20:
 538 0206 C046     		.align	2
 539              	.L19:
 540 0208 6CF02E40 		.word	1076818028
 541 020c 00000000 		.word	.LANCHOR0
 542 0210 00600F40 		.word	1074749440
 543 0214 02600F40 		.word	1074749442
 544 0218 00000240 		.word	1073872896
 545 021c 00010240 		.word	1073873152
 546 0220 00020240 		.word	1073873408
 547 0224 00030240 		.word	1073873664
 548 0228 00500F40 		.word	1074745344
 549 022c 04009900 		.word	10027012
 550 0230 10500F40 		.word	1074745360
 551 0234 14500F40 		.word	1074745364
 552 0238 18500F40 		.word	1074745368
 553 023c 20500F40 		.word	1074745376
 554 0240 24500F40 		.word	1074745380
 555 0244 28500F40 		.word	1074745384
 556 0248 30500F40 		.word	1074745392
 557 024c 38500F40 		.word	1074745400
 558 0250 00700F40 		.word	1074753536
 559 0254 01700F40 		.word	1074753537
 560 0258 08000440 		.word	1074003976
 561 025c 00010440 		.word	1074004224
 562 0260 801D0300 		.word	204160
 563 0264 08010440 		.word	1074004232
 564 0268 00020440 		.word	1074004480
 565 026c 08020440 		.word	1074004488
 566 0270 0C020440 		.word	1074004492
 567 0274 00030440 		.word	1074004736
 568 0278 08030440 		.word	1074004744
 569              		.cfi_endproc
 570              	.LFE8:
 571              		.size	cyfitter_cfg, .-cyfitter_cfg
ARM GAS  C:\Users\Parthiv\AppData\Local\Temp\ccbTTDig.s 			page 24


 572              		.section	.rodata
 573              		.align	2
 574              		.set	.LANCHOR0,. + 0
 575              		.type	cfg_memset_list.4786, %object
 576              		.size	cfg_memset_list.4786, 18
 577              	cfg_memset_list.4786:
 578 0000 00300F40 		.word	1074737152
 579 0004 8000     		.short	128
 580 0006 00310F40 		.4byte	1074737408
 581 000a 0003     		.short	768
 582 000c 00400F40 		.word	1074741248
 583 0010 0004     		.short	1024
 584 0012 0000     		.space	2
 585              		.type	cfg_memcpy_list.4788, %object
 586              		.size	cfg_memcpy_list.4788, 10
 587              	cfg_memcpy_list.4788:
 588 0014 80300F40 		.word	1074737280
 589 0018 7C020000 		.word	BS_UDB_0_1_1_CONFIG_VAL.4787
 590 001c 8000     		.short	128
 591 001e 0000     		.space	2
 592              		.type	cy_cfg_addr_table.4775, %object
 593              		.size	cy_cfg_addr_table.4775, 36
 594              	cy_cfg_addr_table.4775:
 595 0020 04000F40 		.word	1074724868
 596 0024 12300F40 		.word	1074737170
 597 0028 39310F40 		.word	1074737465
 598 002c 6A320F40 		.word	1074737770
 599 0030 4E330F40 		.word	1074737998
 600 0034 09410F40 		.word	1074741513
 601 0038 02420F40 		.word	1074741762
 602 003c 08430F40 		.word	1074742024
 603 0040 02600F40 		.word	1074749442
 604              		.type	cy_cfg_data_table.4776, %object
 605              		.size	cy_cfg_data_table.4776, 568
 606              	cy_cfg_data_table.4776:
 607 0044 73       		.byte	115
 608 0045 07       		.byte	7
 609 0046 80       		.byte	-128
 610 0047 38       		.byte	56
 611 0048 81       		.byte	-127
 612 0049 72       		.byte	114
 613 004a 82       		.byte	-126
 614 004b 0F       		.byte	15
 615 004c 02       		.byte	2
 616 004d 02       		.byte	2
 617 004e 06       		.byte	6
 618 004f 01       		.byte	1
 619 0050 12       		.byte	18
 620 0051 01       		.byte	1
 621 0052 21       		.byte	33
 622 0053 01       		.byte	1
 623 0054 2A       		.byte	42
 624 0055 04       		.byte	4
 625 0056 2E       		.byte	46
 626 0057 02       		.byte	2
 627 0058 30       		.byte	48
 628 0059 04       		.byte	4
ARM GAS  C:\Users\Parthiv\AppData\Local\Temp\ccbTTDig.s 			page 25


 629 005a 32       		.byte	50
 630 005b 01       		.byte	1
 631 005c 34       		.byte	52
 632 005d 02       		.byte	2
 633 005e 37       		.byte	55
 634 005f 01       		.byte	1
 635 0060 3A       		.byte	58
 636 0061 80       		.byte	-128
 637 0062 3E       		.byte	62
 638 0063 14       		.byte	20
 639 0064 3F       		.byte	63
 640 0065 40       		.byte	64
 641 0066 54       		.byte	84
 642 0067 18       		.byte	24
 643 0068 58       		.byte	88
 644 0069 04       		.byte	4
 645 006a 59       		.byte	89
 646 006b 04       		.byte	4
 647 006c 5B       		.byte	91
 648 006d 04       		.byte	4
 649 006e 5F       		.byte	95
 650 006f 01       		.byte	1
 651 0070 02       		.byte	2
 652 0071 A0       		.byte	-96
 653 0072 04       		.byte	4
 654 0073 A8       		.byte	-88
 655 0074 06       		.byte	6
 656 0075 80       		.byte	-128
 657 0076 09       		.byte	9
 658 0077 02       		.byte	2
 659 0078 0D       		.byte	13
 660 0079 20       		.byte	32
 661 007a 0E       		.byte	14
 662 007b 10       		.byte	16
 663 007c 0F       		.byte	15
 664 007d 80       		.byte	-128
 665 007e 11       		.byte	17
 666 007f 20       		.byte	32
 667 0080 12       		.byte	18
 668 0081 01       		.byte	1
 669 0082 16       		.byte	22
 670 0083 02       		.byte	2
 671 0084 17       		.byte	23
 672 0085 26       		.byte	38
 673 0086 18       		.byte	24
 674 0087 14       		.byte	20
 675 0088 19       		.byte	25
 676 0089 40       		.byte	64
 677 008a 1A       		.byte	26
 678 008b 40       		.byte	64
 679 008c 1B       		.byte	27
 680 008d 40       		.byte	64
 681 008e 1C       		.byte	28
 682 008f 08       		.byte	8
 683 0090 1D       		.byte	29
 684 0091 22       		.byte	34
 685 0092 1E       		.byte	30
ARM GAS  C:\Users\Parthiv\AppData\Local\Temp\ccbTTDig.s 			page 26


 686 0093 21       		.byte	33
 687 0094 23       		.byte	35
 688 0095 01       		.byte	1
 689 0096 24       		.byte	36
 690 0097 40       		.byte	64
 691 0098 26       		.byte	38
 692 0099 84       		.byte	-124
 693 009a 27       		.byte	39
 694 009b 08       		.byte	8
 695 009c 2B       		.byte	43
 696 009d 80       		.byte	-128
 697 009e 2C       		.byte	44
 698 009f 08       		.byte	8
 699 00a0 2D       		.byte	45
 700 00a1 04       		.byte	4
 701 00a2 2E       		.byte	46
 702 00a3 40       		.byte	64
 703 00a4 35       		.byte	53
 704 00a5 40       		.byte	64
 705 00a6 37       		.byte	55
 706 00a7 26       		.byte	38
 707 00a8 38       		.byte	56
 708 00a9 08       		.byte	8
 709 00aa 39       		.byte	57
 710 00ab 04       		.byte	4
 711 00ac 3C       		.byte	60
 712 00ad 48       		.byte	72
 713 00ae 3D       		.byte	61
 714 00af 20       		.byte	32
 715 00b0 3E       		.byte	62
 716 00b1 82       		.byte	-126
 717 00b2 45       		.byte	69
 718 00b3 22       		.byte	34
 719 00b4 47       		.byte	71
 720 00b5 40       		.byte	64
 721 00b6 4C       		.byte	76
 722 00b7 04       		.byte	4
 723 00b8 4E       		.byte	78
 724 00b9 20       		.byte	32
 725 00ba 4F       		.byte	79
 726 00bb 80       		.byte	-128
 727 00bc 56       		.byte	86
 728 00bd 01       		.byte	1
 729 00be 5A       		.byte	90
 730 00bf 01       		.byte	1
 731 00c0 5E       		.byte	94
 732 00c1 08       		.byte	8
 733 00c2 60       		.byte	96
 734 00c3 06       		.byte	6
 735 00c4 6C       		.byte	108
 736 00c5 20       		.byte	32
 737 00c6 6D       		.byte	109
 738 00c7 10       		.byte	16
 739 00c8 6F       		.byte	111
 740 00c9 01       		.byte	1
 741 00ca 77       		.byte	119
 742 00cb 26       		.byte	38
ARM GAS  C:\Users\Parthiv\AppData\Local\Temp\ccbTTDig.s 			page 27


 743 00cc 80       		.byte	-128
 744 00cd 12       		.byte	18
 745 00ce C0       		.byte	-64
 746 00cf FC       		.byte	-4
 747 00d0 C2       		.byte	-62
 748 00d1 78       		.byte	120
 749 00d2 C4       		.byte	-60
 750 00d3 F3       		.byte	-13
 751 00d4 CA       		.byte	-54
 752 00d5 71       		.byte	113
 753 00d6 CC       		.byte	-52
 754 00d7 F0       		.byte	-16
 755 00d8 CE       		.byte	-50
 756 00d9 F0       		.byte	-16
 757 00da D0       		.byte	-48
 758 00db B0       		.byte	-80
 759 00dc D2       		.byte	-46
 760 00dd 30       		.byte	48
 761 00de D6       		.byte	-42
 762 00df 41       		.byte	65
 763 00e0 D8       		.byte	-40
 764 00e1 0C       		.byte	12
 765 00e2 01       		.byte	1
 766 00e3 01       		.byte	1
 767 00e4 02       		.byte	2
 768 00e5 08       		.byte	8
 769 00e6 03       		.byte	3
 770 00e7 0A       		.byte	10
 771 00e8 04       		.byte	4
 772 00e9 13       		.byte	19
 773 00ea 05       		.byte	5
 774 00eb 02       		.byte	2
 775 00ec 06       		.byte	6
 776 00ed 0C       		.byte	12
 777 00ee 07       		.byte	7
 778 00ef 09       		.byte	9
 779 00f0 08       		.byte	8
 780 00f1 80       		.byte	-128
 781 00f2 09       		.byte	9
 782 00f3 13       		.byte	19
 783 00f4 0A       		.byte	10
 784 00f5 20       		.byte	32
 785 00f6 0C       		.byte	12
 786 00f7 13       		.byte	19
 787 00f8 0E       		.byte	14
 788 00f9 04       		.byte	4
 789 00fa 11       		.byte	17
 790 00fb 10       		.byte	16
 791 00fc 12       		.byte	18
 792 00fd 15       		.byte	21
 793 00fe 14       		.byte	20
 794 00ff 20       		.byte	32
 795 0100 16       		.byte	22
 796 0101 C0       		.byte	-64
 797 0102 18       		.byte	24
 798 0103 E0       		.byte	-32
 799 0104 1C       		.byte	28
ARM GAS  C:\Users\Parthiv\AppData\Local\Temp\ccbTTDig.s 			page 28


 800 0105 40       		.byte	64
 801 0106 1E       		.byte	30
 802 0107 20       		.byte	32
 803 0108 24       		.byte	36
 804 0109 0A       		.byte	10
 805 010a 25       		.byte	37
 806 010b 13       		.byte	19
 807 010c 26       		.byte	38
 808 010d 14       		.byte	20
 809 010e 28       		.byte	40
 810 010f E0       		.byte	-32
 811 0110 2B       		.byte	43
 812 0111 04       		.byte	4
 813 0112 2C       		.byte	44
 814 0113 03       		.byte	3
 815 0114 2E       		.byte	46
 816 0115 14       		.byte	20
 817 0116 30       		.byte	48
 818 0117 10       		.byte	16
 819 0118 31       		.byte	49
 820 0119 0C       		.byte	12
 821 011a 32       		.byte	50
 822 011b E0       		.byte	-32
 823 011c 33       		.byte	51
 824 011d 03       		.byte	3
 825 011e 34       		.byte	52
 826 011f 0F       		.byte	15
 827 0120 35       		.byte	53
 828 0121 10       		.byte	16
 829 0122 3A       		.byte	58
 830 0123 20       		.byte	32
 831 0124 3E       		.byte	62
 832 0125 01       		.byte	1
 833 0126 3F       		.byte	63
 834 0127 01       		.byte	1
 835 0128 40       		.byte	64
 836 0129 35       		.byte	53
 837 012a 41       		.byte	65
 838 012b 01       		.byte	1
 839 012c 46       		.byte	70
 840 012d 0B       		.byte	11
 841 012e 47       		.byte	71
 842 012f CE       		.byte	-50
 843 0130 48       		.byte	72
 844 0131 34       		.byte	52
 845 0132 49       		.byte	73
 846 0133 FF       		.byte	-1
 847 0134 4A       		.byte	74
 848 0135 FF       		.byte	-1
 849 0136 4B       		.byte	75
 850 0137 FF       		.byte	-1
 851 0138 4E       		.byte	78
 852 0139 F0       		.byte	-16
 853 013a 4F       		.byte	79
 854 013b 44       		.byte	68
 855 013c 50       		.byte	80
 856 013d 0C       		.byte	12
ARM GAS  C:\Users\Parthiv\AppData\Local\Temp\ccbTTDig.s 			page 29


 857 013e 54       		.byte	84
 858 013f 01       		.byte	1
 859 0140 58       		.byte	88
 860 0141 04       		.byte	4
 861 0142 59       		.byte	89
 862 0143 04       		.byte	4
 863 0144 5A       		.byte	90
 864 0145 04       		.byte	4
 865 0146 5B       		.byte	91
 866 0147 04       		.byte	4
 867 0148 5F       		.byte	95
 868 0149 01       		.byte	1
 869 014a 66       		.byte	102
 870 014b C0       		.byte	-64
 871 014c 6A       		.byte	106
 872 014d 40       		.byte	64
 873 014e 6B       		.byte	107
 874 014f 02       		.byte	2
 875 0150 82       		.byte	-126
 876 0151 03       		.byte	3
 877 0152 84       		.byte	-124
 878 0153 10       		.byte	16
 879 0154 85       		.byte	-123
 880 0155 2C       		.byte	44
 881 0156 86       		.byte	-122
 882 0157 AC       		.byte	-84
 883 0158 87       		.byte	-121
 884 0159 43       		.byte	67
 885 015a 8E       		.byte	-114
 886 015b 20       		.byte	32
 887 015c 8F       		.byte	-113
 888 015d 08       		.byte	8
 889 015e 90       		.byte	-112
 890 015f 10       		.byte	16
 891 0160 92       		.byte	-110
 892 0161 40       		.byte	64
 893 0162 9C       		.byte	-100
 894 0163 0C       		.byte	12
 895 0164 9D       		.byte	-99
 896 0165 71       		.byte	113
 897 0166 9E       		.byte	-98
 898 0167 71       		.byte	113
 899 0168 9F       		.byte	-97
 900 0169 0E       		.byte	14
 901 016a A0       		.byte	-96
 902 016b 14       		.byte	20
 903 016c A1       		.byte	-95
 904 016d 80       		.byte	-128
 905 016e A3       		.byte	-93
 906 016f 13       		.byte	19
 907 0170 A4       		.byte	-92
 908 0171 DC       		.byte	-36
 909 0172 A6       		.byte	-90
 910 0173 22       		.byte	34
 911 0174 A9       		.byte	-87
 912 0175 71       		.byte	113
 913 0176 AB       		.byte	-85
ARM GAS  C:\Users\Parthiv\AppData\Local\Temp\ccbTTDig.s 			page 30


 914 0177 06       		.byte	6
 915 0178 AC       		.byte	-84
 916 0179 09       		.byte	9
 917 017a AE       		.byte	-82
 918 017b D0       		.byte	-48
 919 017c AF       		.byte	-81
 920 017d 0C       		.byte	12
 921 017e B0       		.byte	-80
 922 017f E0       		.byte	-32
 923 0180 B1       		.byte	-79
 924 0181 C0       		.byte	-64
 925 0182 B3       		.byte	-77
 926 0183 30       		.byte	48
 927 0184 B5       		.byte	-75
 928 0185 0F       		.byte	15
 929 0186 B6       		.byte	-74
 930 0187 1F       		.byte	31
 931 0188 B9       		.byte	-71
 932 0189 0A       		.byte	10
 933 018a BA       		.byte	-70
 934 018b 02       		.byte	2
 935 018c BB       		.byte	-69
 936 018d 20       		.byte	32
 937 018e BF       		.byte	-65
 938 018f 04       		.byte	4
 939 0190 C0       		.byte	-64
 940 0191 06       		.byte	6
 941 0192 C6       		.byte	-58
 942 0193 04       		.byte	4
 943 0194 C9       		.byte	-55
 944 0195 FF       		.byte	-1
 945 0196 CA       		.byte	-54
 946 0197 07       		.byte	7
 947 0198 CB       		.byte	-53
 948 0199 FF       		.byte	-1
 949 019a CC       		.byte	-52
 950 019b 40       		.byte	64
 951 019c CD       		.byte	-51
 952 019d 20       		.byte	32
 953 019e CE       		.byte	-50
 954 019f F0       		.byte	-16
 955 01a0 CF       		.byte	-49
 956 01a1 05       		.byte	5
 957 01a2 D0       		.byte	-48
 958 01a3 08       		.byte	8
 959 01a4 D8       		.byte	-40
 960 01a5 04       		.byte	4
 961 01a6 D9       		.byte	-39
 962 01a7 04       		.byte	4
 963 01a8 DA       		.byte	-38
 964 01a9 04       		.byte	4
 965 01aa DB       		.byte	-37
 966 01ab 04       		.byte	4
 967 01ac DF       		.byte	-33
 968 01ad 01       		.byte	1
 969 01ae E0       		.byte	-32
 970 01af 40       		.byte	64
ARM GAS  C:\Users\Parthiv\AppData\Local\Temp\ccbTTDig.s 			page 31


 971 01b0 E1       		.byte	-31
 972 01b1 A8       		.byte	-88
 973 01b2 E2       		.byte	-30
 974 01b3 40       		.byte	64
 975 01b4 E3       		.byte	-29
 976 01b5 20       		.byte	32
 977 01b6 00       		.byte	0
 978 01b7 84       		.byte	-124
 979 01b8 03       		.byte	3
 980 01b9 80       		.byte	-128
 981 01ba 04       		.byte	4
 982 01bb 24       		.byte	36
 983 01bc 05       		.byte	5
 984 01bd 40       		.byte	64
 985 01be 07       		.byte	7
 986 01bf 80       		.byte	-128
 987 01c0 09       		.byte	9
 988 01c1 80       		.byte	-128
 989 01c2 0B       		.byte	11
 990 01c3 80       		.byte	-128
 991 01c4 0C       		.byte	12
 992 01c5 20       		.byte	32
 993 01c6 0E       		.byte	14
 994 01c7 10       		.byte	16
 995 01c8 0F       		.byte	15
 996 01c9 81       		.byte	-127
 997 01ca 10       		.byte	16
 998 01cb 81       		.byte	-127
 999 01cc 13       		.byte	19
 1000 01cd 84       		.byte	-124
 1001 01ce 15       		.byte	21
 1002 01cf 18       		.byte	24
 1003 01d0 16       		.byte	22
 1004 01d1 01       		.byte	1
 1005 01d2 1A       		.byte	26
 1006 01d3 80       		.byte	-128
 1007 01d4 1B       		.byte	27
 1008 01d5 80       		.byte	-128
 1009 01d6 1C       		.byte	28
 1010 01d7 44       		.byte	68
 1011 01d8 1D       		.byte	29
 1012 01d9 10       		.byte	16
 1013 01da 1E       		.byte	30
 1014 01db 10       		.byte	16
 1015 01dc 23       		.byte	35
 1016 01dd 94       		.byte	-108
 1017 01de 24       		.byte	36
 1018 01df 28       		.byte	40
 1019 01e0 25       		.byte	37
 1020 01e1 04       		.byte	4
 1021 01e2 27       		.byte	39
 1022 01e3 40       		.byte	64
 1023 01e4 28       		.byte	40
 1024 01e5 01       		.byte	1
 1025 01e6 29       		.byte	41
 1026 01e7 11       		.byte	17
 1027 01e8 2A       		.byte	42
ARM GAS  C:\Users\Parthiv\AppData\Local\Temp\ccbTTDig.s 			page 32


 1028 01e9 20       		.byte	32
 1029 01ea 2B       		.byte	43
 1030 01eb 40       		.byte	64
 1031 01ec 2C       		.byte	44
 1032 01ed 20       		.byte	32
 1033 01ee 2E       		.byte	46
 1034 01ef 10       		.byte	16
 1035 01f0 31       		.byte	49
 1036 01f1 C0       		.byte	-64
 1037 01f2 32       		.byte	50
 1038 01f3 40       		.byte	64
 1039 01f4 37       		.byte	55
 1040 01f5 01       		.byte	1
 1041 01f6 39       		.byte	57
 1042 01f7 08       		.byte	8
 1043 01f8 3B       		.byte	59
 1044 01f9 84       		.byte	-124
 1045 01fa 3D       		.byte	61
 1046 01fb 18       		.byte	24
 1047 01fc 3F       		.byte	63
 1048 01fd 01       		.byte	1
 1049 01fe 45       		.byte	69
 1050 01ff 80       		.byte	-128
 1051 0200 46       		.byte	70
 1052 0201 20       		.byte	32
 1053 0202 48       		.byte	72
 1054 0203 40       		.byte	64
 1055 0204 49       		.byte	73
 1056 0205 01       		.byte	1
 1057 0206 4B       		.byte	75
 1058 0207 10       		.byte	16
 1059 0208 4F       		.byte	79
 1060 0209 80       		.byte	-128
 1061 020a 53       		.byte	83
 1062 020b 40       		.byte	64
 1063 020c 54       		.byte	84
 1064 020d 89       		.byte	-119
 1065 020e 56       		.byte	86
 1066 020f 01       		.byte	1
 1067 0210 57       		.byte	87
 1068 0211 08       		.byte	8
 1069 0212 5C       		.byte	92
 1070 0213 62       		.byte	98
 1071 0214 5F       		.byte	95
 1072 0215 08       		.byte	8
 1073 0216 68       		.byte	104
 1074 0217 04       		.byte	4
 1075 0218 69       		.byte	105
 1076 0219 44       		.byte	68
 1077 021a 80       		.byte	-128
 1078 021b 40       		.byte	64
 1079 021c 81       		.byte	-127
 1080 021d 50       		.byte	80
 1081 021e 83       		.byte	-125
 1082 021f 01       		.byte	1
 1083 0220 84       		.byte	-124
 1084 0221 25       		.byte	37
ARM GAS  C:\Users\Parthiv\AppData\Local\Temp\ccbTTDig.s 			page 33


 1085 0222 89       		.byte	-119
 1086 0223 04       		.byte	4
 1087 0224 8C       		.byte	-116
 1088 0225 02       		.byte	2
 1089 0226 8F       		.byte	-113
 1090 0227 08       		.byte	8
 1091 0228 91       		.byte	-111
 1092 0229 10       		.byte	16
 1093 022a 94       		.byte	-108
 1094 022b A8       		.byte	-88
 1095 022c 96       		.byte	-106
 1096 022d 10       		.byte	16
 1097 022e 9B       		.byte	-101
 1098 022f 09       		.byte	9
 1099 0230 9F       		.byte	-97
 1100 0231 40       		.byte	64
 1101 0232 A0       		.byte	-96
 1102 0233 20       		.byte	32
 1103 0234 A4       		.byte	-92
 1104 0235 08       		.byte	8
 1105 0236 A5       		.byte	-91
 1106 0237 10       		.byte	16
 1107 0238 A7       		.byte	-89
 1108 0239 80       		.byte	-128
 1109 023a AB       		.byte	-85
 1110 023b 01       		.byte	1
 1111 023c AE       		.byte	-82
 1112 023d 12       		.byte	18
 1113 023e C0       		.byte	-64
 1114 023f FD       		.byte	-3
 1115 0240 C2       		.byte	-62
 1116 0241 F9       		.byte	-7
 1117 0242 C4       		.byte	-60
 1118 0243 ED       		.byte	-19
 1119 0244 CA       		.byte	-54
 1120 0245 6D       		.byte	109
 1121 0246 CC       		.byte	-52
 1122 0247 88       		.byte	-120
 1123 0248 CE       		.byte	-50
 1124 0249 EA       		.byte	-22
 1125 024a D0       		.byte	-48
 1126 024b 50       		.byte	80
 1127 024c D2       		.byte	-46
 1128 024d 14       		.byte	20
 1129 024e D6       		.byte	-42
 1130 024f F0       		.byte	-16
 1131 0250 E4       		.byte	-28
 1132 0251 06       		.byte	6
 1133 0252 0A       		.byte	10
 1134 0253 10       		.byte	16
 1135 0254 5B       		.byte	91
 1136 0255 04       		.byte	4
 1137 0256 82       		.byte	-126
 1138 0257 10       		.byte	16
 1139 0258 9B       		.byte	-101
 1140 0259 04       		.byte	4
 1141 025a AB       		.byte	-85
ARM GAS  C:\Users\Parthiv\AppData\Local\Temp\ccbTTDig.s 			page 34


 1142 025b 04       		.byte	4
 1143 025c C2       		.byte	-62
 1144 025d 10       		.byte	16
 1145 025e D6       		.byte	-42
 1146 025f 40       		.byte	64
 1147 0260 E0       		.byte	-32
 1148 0261 80       		.byte	-128
 1149 0262 EA       		.byte	-22
 1150 0263 80       		.byte	-128
 1151 0264 60       		.byte	96
 1152 0265 80       		.byte	-128
 1153 0266 D8       		.byte	-40
 1154 0267 02       		.byte	2
 1155 0268 5A       		.byte	90
 1156 0269 02       		.byte	2
 1157 026a 67       		.byte	103
 1158 026b 02       		.byte	2
 1159 026c 83       		.byte	-125
 1160 026d 01       		.byte	1
 1161 026e 86       		.byte	-122
 1162 026f 01       		.byte	1
 1163 0270 88       		.byte	-120
 1164 0271 80       		.byte	-128
 1165 0272 9C       		.byte	-100
 1166 0273 80       		.byte	-128
 1167 0274 D6       		.byte	-42
 1168 0275 03       		.byte	3
 1169 0276 E0       		.byte	-32
 1170 0277 04       		.byte	4
 1171 0278 10       		.byte	16
 1172 0279 01       		.byte	1
 1173 027a 11       		.byte	17
 1174 027b 01       		.byte	1
 1175              		.type	BS_UDB_0_1_1_CONFIG_VAL.4787, %object
 1176              		.size	BS_UDB_0_1_1_CONFIG_VAL.4787, 128
 1177              	BS_UDB_0_1_1_CONFIG_VAL.4787:
 1178 027c 1C       		.byte	28
 1179 027d 3C       		.byte	60
 1180 027e E3       		.byte	-29
 1181 027f 41       		.byte	65
 1182 0280 00       		.byte	0
 1183 0281 67       		.byte	103
 1184 0282 F3       		.byte	-13
 1185 0283 18       		.byte	24
 1186 0284 82       		.byte	-126
 1187 0285 04       		.byte	4
 1188 0286 00       		.byte	0
 1189 0287 00       		.byte	0
 1190 0288 41       		.byte	65
 1191 0289 3C       		.byte	60
 1192 028a 00       		.byte	0
 1193 028b 42       		.byte	66
 1194 028c FF       		.byte	-1
 1195 028d 10       		.byte	16
 1196 028e 00       		.byte	0
 1197 028f 00       		.byte	0
 1198 0290 C3       		.byte	-61
ARM GAS  C:\Users\Parthiv\AppData\Local\Temp\ccbTTDig.s 			page 35


 1199 0291 08       		.byte	8
 1200 0292 00       		.byte	0
 1201 0293 00       		.byte	0
 1202 0294 F3       		.byte	-13
 1203 0295 18       		.byte	24
 1204 0296 0C       		.byte	12
 1205 0297 00       		.byte	0
 1206 0298 00       		.byte	0
 1207 0299 7F       		.byte	127
 1208 029a 00       		.byte	0
 1209 029b 00       		.byte	0
 1210 029c 08       		.byte	8
 1211 029d 00       		.byte	0
 1212 029e 00       		.byte	0
 1213 029f 00       		.byte	0
 1214 02a0 04       		.byte	4
 1215 02a1 00       		.byte	0
 1216 02a2 00       		.byte	0
 1217 02a3 03       		.byte	3
 1218 02a4 0C       		.byte	12
 1219 02a5 80       		.byte	-128
 1220 02a6 00       		.byte	0
 1221 02a7 00       		.byte	0
 1222 02a8 0F       		.byte	15
 1223 02a9 00       		.byte	0
 1224 02aa F0       		.byte	-16
 1225 02ab 04       		.byte	4
 1226 02ac 1C       		.byte	28
 1227 02ad 1F       		.byte	31
 1228 02ae 2C       		.byte	44
 1229 02af 20       		.byte	32
 1230 02b0 0F       		.byte	15
 1231 02b1 80       		.byte	-128
 1232 02b2 C0       		.byte	-64
 1233 02b3 40       		.byte	64
 1234 02b4 00       		.byte	0
 1235 02b5 80       		.byte	-128
 1236 02b6 28       		.byte	40
 1237 02b7 02       		.byte	2
 1238 02b8 00       		.byte	0
 1239 02b9 00       		.byte	0
 1240 02ba 00       		.byte	0
 1241 02bb 14       		.byte	20
 1242 02bc 26       		.byte	38
 1243 02bd 05       		.byte	5
 1244 02be 04       		.byte	4
 1245 02bf 00       		.byte	0
 1246 02c0 01       		.byte	1
 1247 02c1 0C       		.byte	12
 1248 02c2 00       		.byte	0
 1249 02c3 E0       		.byte	-32
 1250 02c4 21       		.byte	33
 1251 02c5 FF       		.byte	-1
 1252 02c6 FF       		.byte	-1
 1253 02c7 FF       		.byte	-1
 1254 02c8 62       		.byte	98
 1255 02c9 A0       		.byte	-96
ARM GAS  C:\Users\Parthiv\AppData\Local\Temp\ccbTTDig.s 			page 36


 1256 02ca F0       		.byte	-16
 1257 02cb 41       		.byte	65
 1258 02cc 0C       		.byte	12
 1259 02cd 00       		.byte	0
 1260 02ce 00       		.byte	0
 1261 02cf 00       		.byte	0
 1262 02d0 00       		.byte	0
 1263 02d1 00       		.byte	0
 1264 02d2 02       		.byte	2
 1265 02d3 12       		.byte	18
 1266 02d4 04       		.byte	4
 1267 02d5 04       		.byte	4
 1268 02d6 04       		.byte	4
 1269 02d7 04       		.byte	4
 1270 02d8 00       		.byte	0
 1271 02d9 00       		.byte	0
 1272 02da 00       		.byte	0
 1273 02db 01       		.byte	1
 1274 02dc 00       		.byte	0
 1275 02dd 00       		.byte	0
 1276 02de 00       		.byte	0
 1277 02df 00       		.byte	0
 1278 02e0 00       		.byte	0
 1279 02e1 00       		.byte	0
 1280 02e2 40       		.byte	64
 1281 02e3 02       		.byte	2
 1282 02e4 00       		.byte	0
 1283 02e5 10       		.byte	16
 1284 02e6 30       		.byte	48
 1285 02e7 10       		.byte	16
 1286 02e8 00       		.byte	0
 1287 02e9 10       		.byte	16
 1288 02ea 10       		.byte	16
 1289 02eb 12       		.byte	18
 1290 02ec 00       		.byte	0
 1291 02ed 00       		.byte	0
 1292 02ee 00       		.byte	0
 1293 02ef 00       		.byte	0
 1294 02f0 00       		.byte	0
 1295 02f1 00       		.byte	0
 1296 02f2 00       		.byte	0
 1297 02f3 00       		.byte	0
 1298 02f4 00       		.byte	0
 1299 02f5 00       		.byte	0
 1300 02f6 00       		.byte	0
 1301 02f7 00       		.byte	0
 1302 02f8 00       		.byte	0
 1303 02f9 00       		.byte	0
 1304 02fa 00       		.byte	0
 1305 02fb 00       		.byte	0
 1306              		.text
 1307              	.Letext0:
 1308              		.file 2 "c:\\program files (x86)\\cypress\\psoc creator\\3.3\\psoc creator\\import\\gnu\\arm\\4.9.
 1309              		.file 3 ".\\Generated_Source\\PSoC4\\cytypes.h"
 1310              		.file 4 ".\\Generated_Source\\PSoC4\\CyLib.h"
 1311              		.file 5 ".\\Generated_Source\\PSoC4\\CyLFClk.h"