ARM GAS  C:\Users\Parthiv\AppData\Local\Temp\ccBVkRoX.s 			page 1


   1              		.cpu cortex-m0
   2              		.fpu softvfp
   3              		.eabi_attribute 20, 1
   4              		.eabi_attribute 21, 1
   5              		.eabi_attribute 23, 3
   6              		.eabi_attribute 24, 1
   7              		.eabi_attribute 25, 1
   8              		.eabi_attribute 26, 1
   9              		.eabi_attribute 30, 1
  10              		.eabi_attribute 34, 0
  11              		.eabi_attribute 18, 4
  12              		.code	16
  13              		.file	"main.c"
  14              		.text
  15              	.Ltext0:
  16              		.cfi_sections	.debug_frame
  17              		.section	.text.press,"ax",%progbits
  18              		.align	2
  19              		.global	press
  20              		.code	16
  21              		.thumb_func
  22              		.type	press, %function
  23              	press:
  24              	.LFB37:
  25              		.file 1 ".\\main.c"
   1:.\main.c      **** /*
   2:.\main.c      **** ------------Authors-------------
   3:.\main.c      **** - Nishit Khara
   4:.\main.c      **** - Parthiv Parikh
   5:.\main.c      **** - Yash Gupte
   6:.\main.c      **** */
   7:.\main.c      **** 
   8:.\main.c      **** 
   9:.\main.c      **** /*
  10:.\main.c      ****  *  LED COLORS
  11:.\main.c      ****  *  RED    = 0x3 
  12:.\main.c      ****  *  YELLOW = 0x2
  13:.\main.c      ****  *  BLUE   = 0x5     Scanning
  14:.\main.c      ****  *  GREEN  = 0x6     Advertising
  15:.\main.c      ****  *  Purple = 0x1     Pairing
  16:.\main.c      ****  *  Light Blue = 0x4
  17:.\main.c      ****  *  White      = 0x8
  18:.\main.c      **** */
  19:.\main.c      **** 
  20:.\main.c      **** #include <project.h>
  21:.\main.c      **** #include <stdio.h>
  22:.\main.c      **** 
  23:.\main.c      **** /* FOR IAS */
  24:.\main.c      **** #define NO_ALERT           (0u)
  25:.\main.c      **** #define MILD_ALERT         (1u)
  26:.\main.c      **** #define HIGH_ALERT         (2u)
  27:.\main.c      **** 
  28:.\main.c      **** 
  29:.\main.c      **** #define SIZE 7
  30:.\main.c      **** #define FALSE 0
  31:.\main.c      **** #define TRUE 1
  32:.\main.c      **** 
ARM GAS  C:\Users\Parthiv\AppData\Local\Temp\ccBVkRoX.s 			page 2


  33:.\main.c      **** /* BLE States */
  34:.\main.c      **** #define DISCONNECTED                        (3u)
  35:.\main.c      **** #define ADVERTISING                         (4u)
  36:.\main.c      **** #define CONNECTED                           (5u)
  37:.\main.c      **** #define SCANNING                            (6u)
  38:.\main.c      **** 
  39:.\main.c      **** uint8 state = DISCONNECTED;
  40:.\main.c      **** uint8 attendanceMarked = FALSE;
  41:.\main.c      **** uint8 addedDevices = 0;
  42:.\main.c      **** uint8 maxDevices = SIZE;
  43:.\main.c      **** uint8 address_store[10][6];
  44:.\main.c      **** uint8 a[31];
  45:.\main.c      **** 
  46:.\main.c      **** char buff[100];
  47:.\main.c      **** 
  48:.\main.c      **** CYBLE_GAPC_ADV_REPORT_T  present_devices[SIZE];
  49:.\main.c      **** uint8 permanentList[SIZE][6]=	{{0X39,0X00,0X13,0X01,0X00,0X06},	
  50:.\main.c      **** 							                 {0X04,0X00,0X13,0X01,0X00,0X06},
  51:.\main.c      ****                                {0Xdc,0Xe8,0X38,0X9d,0X09,0X9a}};
  52:.\main.c      **** 															
  53:.\main.c      **** /* FUNCTION DECLARATIONS */
  54:.\main.c      **** void HandleScanDevices(CYBLE_GAPC_ADV_REPORT_T* advReport);
  55:.\main.c      **** void IasEventHandler(uint32 event, void* eventParam);
  56:.\main.c      **** void MembersPresent();
  57:.\main.c      **** void resetval();
  58:.\main.c      **** CY_ISR (press) {  
  26              		.loc 1 58 0
  27              		.cfi_startproc
  28 0000 08B5     		push	{r3, lr}
  29              		.cfi_def_cfa_offset 8
  30              		.cfi_offset 3, -8
  31              		.cfi_offset 14, -4
  59:.\main.c      ****   if (state == DISCONNECTED) {
  32              		.loc 1 59 0
  33 0002 0D4B     		ldr	r3, .L4
  34 0004 1B78     		ldrb	r3, [r3]
  35 0006 032B     		cmp	r3, #3
  36 0008 0ED1     		bne	.L2
  60:.\main.c      ****     if (CYBLE_ERROR_OK == CyBle_GappStartAdvertisement(CYBLE_SCANNING_FAST));
  37              		.loc 1 60 0
  38 000a 0020     		mov	r0, #0
  39 000c FFF7FEFF 		bl	CyBle_GappStartAdvertisement
  40              	.LVL0:
  41 0010 0028     		cmp	r0, #0
  42 0012 0FD0     		beq	.L1
  61:.\main.c      ****     else {
  62:.\main.c      ****       myreg_Write(0x3);
  43              		.loc 1 62 0
  44 0014 0320     		mov	r0, #3
  45 0016 FFF7FEFF 		bl	myreg_Write
  46              	.LVL1:
  63:.\main.c      ****       CyDelay(500);
  47              		.loc 1 63 0
  48 001a FA20     		mov	r0, #250
  49 001c 4000     		lsl	r0, r0, #1
  50 001e FFF7FEFF 		bl	CyDelay
  51              	.LVL2:
ARM GAS  C:\Users\Parthiv\AppData\Local\Temp\ccBVkRoX.s 			page 3


  64:.\main.c      ****       SW_ClearInterrupt();
  52              		.loc 1 64 0
  53 0022 FFF7FEFF 		bl	SW_ClearInterrupt
  54              	.LVL3:
  55 0026 05E0     		b	.L1
  56              	.L2:
  65:.\main.c      ****     }
  66:.\main.c      ****   }
  67:.\main.c      ****   else if (state == SCANNING) {
  57              		.loc 1 67 0
  58 0028 062B     		cmp	r3, #6
  59 002a 03D1     		bne	.L1
  68:.\main.c      ****     //this will be the condition in which scanning is on and the lecture is over
  69:.\main.c      ****     //so teacher will press the button and connect and say lecture over
  70:.\main.c      ****       //it should jump to the evt and then start scanning
  71:.\main.c      ****     /* sprintf(buff,"INSIDE SECOND BUTTON PRESS\n\r");
  72:.\main.c      ****      UART_PutString(buff);*/
  73:.\main.c      ****      CyBle_GapcStopScan();
  60              		.loc 1 73 0
  61 002c FFF7FEFF 		bl	CyBle_GapcStopScan
  62              	.LVL4:
  74:.\main.c      ****     SW_ClearInterrupt();
  63              		.loc 1 74 0
  64 0030 FFF7FEFF 		bl	SW_ClearInterrupt
  65              	.LVL5:
  66              	.L1:
  75:.\main.c      ****   }
  76:.\main.c      **** }
  67              		.loc 1 76 0
  68              		@ sp needed
  69 0034 08BD     		pop	{r3, pc}
  70              	.L5:
  71 0036 C046     		.align	2
  72              	.L4:
  73 0038 00000000 		.word	.LANCHOR0
  74              		.cfi_endproc
  75              	.LFE37:
  76              		.size	press, .-press
  77              		.section	.text.main,"ax",%progbits
  78              		.align	2
  79              		.global	main
  80              		.code	16
  81              		.thumb_func
  82              		.type	main, %function
  83              	main:
  84              	.LFB39:
  77:.\main.c      **** 
  78:.\main.c      **** void BleStackHandler(uint32 event, void* eventParam) {
  79:.\main.c      **** 
  80:.\main.c      **** CYBLE_GAPC_ADV_REPORT_T advreport = *(CYBLE_GAPC_ADV_REPORT_T *)eventParam;
  81:.\main.c      **** 
  82:.\main.c      ****   switch(event) {
  83:.\main.c      **** 
  84:.\main.c      ****     case CYBLE_EVT_STACK_ON:
  85:.\main.c      ****       break;
  86:.\main.c      **** 
  87:.\main.c      ****     /*CyBle_GappStartAdvertisement || CyBle_GappStopAdvertisement() */
ARM GAS  C:\Users\Parthiv\AppData\Local\Temp\ccBVkRoX.s 			page 4


  88:.\main.c      ****     case CYBLE_EVT_GAPP_ADVERTISEMENT_START_STOP:
  89:.\main.c      ****        if (state == DISCONNECTED){  //this will be when advertising is started
  90:.\main.c      ****           state = ADVERTISING;
  91:.\main.c      ****         /*  sprintf(buff,"ADVERTISING\n\r");
  92:.\main.c      ****           UART_PutString(buff);*/
  93:.\main.c      ****           myreg_Write(0x6);     // Green LED is ON for indicating Advertising
  94:.\main.c      ****       }
  95:.\main.c      ****       break;
  96:.\main.c      **** 
  97:.\main.c      ****     /*CyBle_GapcStartScan*/
  98:.\main.c      ****     case CYBLE_EVT_GAPC_SCAN_PROGRESS_RESULT:
  99:.\main.c      ****       if(advreport.eventType == CYBLE_GAPC_CONN_UNDIRECTED_ADV){
 100:.\main.c      ****      	/*  sprintf(buff,"INSIDE SCAN PROGRESS RESULT\r\n");
 101:.\main.c      ****      	  UART_PutString(buff);*/
 102:.\main.c      ****   			uint8 val;
 103:.\main.c      ****         for(val = 0u; val <6u; val++){
 104:.\main.c      ****           a[val] = advreport.data[val+7u];
 105:.\main.c      ****         }
 106:.\main.c      ****         //sprintf(buff,"Received data is: %2.2x%2.2x%2.2x%2.2x%2.2x%2.2x%2.2x%2.2x%2.2x%2.2x%2.2x%2
 107:.\main.c      ****         //UART_PutString(buff);
 108:.\main.c      ****      /*   sprintf(buff, "DATA: %2.2x%2.2x%2.2x%2.2x%2.2x%2.2x \r\n", a[5u], a[4u], a[3u], a[2u], a[
 109:.\main.c      ****         UART_PutString(buff);*/
 110:.\main.c      ****   			
 111:.\main.c      ****         HandleScanDevices(&advreport);
 112:.\main.c      ****       }
 113:.\main.c      ****       else{
 114:.\main.c      ****     /*  sprintf(buff, "SRP");
 115:.\main.c      ****       UART_PutString(buff);*/}
 116:.\main.c      ****       break;
 117:.\main.c      **** 
 118:.\main.c      ****     case CYBLE_EVT_GAP_DEVICE_CONNECTED:
 119:.\main.c      ****       state = CONNECTED;
 120:.\main.c      ****       myreg_Write(0x1);              // Purple is ON for indicating pairing
 121:.\main.c      ****      /* sprintf(buff,"Connected\n\r");
 122:.\main.c      ****       UART_PutString(buff);*/
 123:.\main.c      ****       break;
 124:.\main.c      **** 
 125:.\main.c      ****     case CYBLE_EVT_GAP_DEVICE_DISCONNECTED:
 126:.\main.c      ****       
 127:.\main.c      ****     if (state == CONNECTED && !attendanceMarked) { //this will be when advetising is stopped
 128:.\main.c      ****       state = DISCONNECTED;
 129:.\main.c      ****       CyBle_GapcStartScan(CYBLE_SCANNING_FAST);
 130:.\main.c      ****       myreg_Write(0x5);   // BLUE is ON for indicating the SCANNING function
 131:.\main.c      ****    /*   sprintf(buff,"Disconnected1\n\r");
 132:.\main.c      ****       UART_PutString(buff);*/
 133:.\main.c      ****      }
 134:.\main.c      ****     else if(state == CONNECTED && attendanceMarked){
 135:.\main.c      ****       state = DISCONNECTED;
 136:.\main.c      ****       attendanceMarked = FALSE;
 137:.\main.c      ****      
 138:.\main.c      ****       resetval();
 139:.\main.c      ****     /*  sprintf(buff,"Disconnected2\n\r");
 140:.\main.c      ****       UART_PutString(buff);*/
 141:.\main.c      ****       //deep sleep
 142:.\main.c      ****     }
 143:.\main.c      ****      break;
 144:.\main.c      **** 
ARM GAS  C:\Users\Parthiv\AppData\Local\Temp\ccBVkRoX.s 			page 5


 145:.\main.c      ****     case CYBLE_EVT_TIMEOUT: //timeout for advertising 
 146:.\main.c      ****       CyBle_GappStopAdvertisement();
 147:.\main.c      ****       //even start scan should be inititated
 148:.\main.c      ****       //or it should be sent into sleep mode and wait for another button press
 149:.\main.c      ****       myreg_Write(0x3);
 150:.\main.c      ****   /*    sprintf(buff,"State     :%u \n\r",state);
 151:.\main.c      ****       UART_PutString(buff);*/
 152:.\main.c      ****       break;
 153:.\main.c      **** 
 154:.\main.c      ****     /*CyBle_GapcStopScan()*/
 155:.\main.c      ****     case CYBLE_EVT_GAPC_SCAN_START_STOP:
 156:.\main.c      ****       if (state == SCANNING) {
 157:.\main.c      ****     /*    sprintf(buff,"WAITING FOR TEACHER TO END LECTURE\r\n");
 158:.\main.c      ****         UART_PutString(buff);*/
 159:.\main.c      ****         state = DISCONNECTED;
 160:.\main.c      ****         CyBle_GappStartAdvertisement(CYBLE_ADVERTISING_FAST);
 161:.\main.c      ****       }
 162:.\main.c      ****       else if(state == DISCONNECTED){//this will be a jump from startADV when teacher pressed butto
 163:.\main.c      ****         state = SCANNING;
 164:.\main.c      ****         myreg_Write(0x5);
 165:.\main.c      ****       }
 166:.\main.c      ****       break;
 167:.\main.c      ****   }
 168:.\main.c      **** }
 169:.\main.c      **** 
 170:.\main.c      **** int main() {
  85              		.loc 1 170 0
  86              		.cfi_startproc
  87 0000 08B5     		push	{r3, lr}
  88              		.cfi_def_cfa_offset 8
  89              		.cfi_offset 3, -8
  90              		.cfi_offset 14, -4
 171:.\main.c      ****   CyGlobalIntEnable;
  91              		.loc 1 171 0
  92              	@ 171 ".\main.c" 1
  93 0002 62B6     		CPSIE   i
  94              	@ 0 "" 2
 172:.\main.c      ****   CyBle_IasRegisterAttrCallback(IasEventHandler);       //for alert level
  95              		.loc 1 172 0
  96              		.code	16
  97 0004 0648     		ldr	r0, .L8
  98 0006 FFF7FEFF 		bl	CyBle_IasRegisterAttrCallback
  99              	.LVL6:
 173:.\main.c      ****   CyBle_Start(BleStackHandler);
 100              		.loc 1 173 0
 101 000a 0648     		ldr	r0, .L8+4
 102 000c FFF7FEFF 		bl	CyBle_Start
 103              	.LVL7:
 174:.\main.c      ****   SWInt_StartEx(&press);
 104              		.loc 1 174 0
 105 0010 0548     		ldr	r0, .L8+8
 106 0012 FFF7FEFF 		bl	SWInt_StartEx
 107              	.LVL8:
 175:.\main.c      ****   UART_Start();
 108              		.loc 1 175 0
 109 0016 FFF7FEFF 		bl	UART_Start
 110              	.LVL9:
ARM GAS  C:\Users\Parthiv\AppData\Local\Temp\ccBVkRoX.s 			page 6


 111              	.L7:
 176:.\main.c      ****   
 177:.\main.c      ****   
 178:.\main.c      **** 
 179:.\main.c      ****   for(;;){
 180:.\main.c      ****     CyBle_ProcessEvents();
 112              		.loc 1 180 0 discriminator 1
 113 001a FFF7FEFF 		bl	CyBle_ProcessEvents
 114              	.LVL10:
 181:.\main.c      ****     //sprintf(buff,"Inside while \n\r");
 182:.\main.c      ****     //UART_PutString(buff);
 183:.\main.c      ****   }
 115              		.loc 1 183 0 discriminator 1
 116 001e FCE7     		b	.L7
 117              	.L9:
 118              		.align	2
 119              	.L8:
 120 0020 00000000 		.word	IasEventHandler
 121 0024 00000000 		.word	BleStackHandler
 122 0028 00000000 		.word	press
 123              		.cfi_endproc
 124              	.LFE39:
 125              		.size	main, .-main
 126              		.section	.text.HandleScanDevices,"ax",%progbits
 127              		.align	2
 128              		.global	HandleScanDevices
 129              		.code	16
 130              		.thumb_func
 131              		.type	HandleScanDevices, %function
 132              	HandleScanDevices:
 133              	.LFB41:
 184:.\main.c      **** 
 185:.\main.c      **** }
 186:.\main.c      **** 
 187:.\main.c      **** void IasEventHandler(uint32 event, void *eventParam) {
 188:.\main.c      ****   
 189:.\main.c      ****   uint8 alertLevel;
 190:.\main.c      ****   if (event == CYBLE_EVT_IASS_WRITE_CHAR_CMD) 
 191:.\main.c      ****   {
 192:.\main.c      ****     CyBle_IassGetCharacteristicValue(CYBLE_IAS_ALERT_LEVEL, sizeof(alertLevel), &alertLevel);
 193:.\main.c      ****   }
 194:.\main.c      ****   //for now only MID_ALERT means lecture start
 195:.\main.c      ****   //and 1_ALERT means lecture Stop
 196:.\main.c      ****   switch (alertLevel) {
 197:.\main.c      ****     case NO_ALERT:
 198:.\main.c      ****   //  
 199:.\main.c      ****       break;
 200:.\main.c      **** 
 201:.\main.c      ****     case MILD_ALERT:
 202:.\main.c      ****       // CyBle_GappStopAdvertisement();//possible error
 203:.\main.c      ****       //not sure where the code will jump, to evtdisconnect or to evtstopadv
 204:.\main.c      ****     CyBle_GapDisconnect(cyBle_connHandle.bdHandle);
 205:.\main.c      ****     break;
 206:.\main.c      **** 
 207:.\main.c      ****     case HIGH_ALERT:
 208:.\main.c      ****     //this case will be when lecture is stopped
 209:.\main.c      ****     //update the data on UART accordingly
ARM GAS  C:\Users\Parthiv\AppData\Local\Temp\ccBVkRoX.s 			page 7


 210:.\main.c      ****      MembersPresent();
 211:.\main.c      ****      CyBle_GapDisconnect(cyBle_connHandle.bdHandle);
 212:.\main.c      ****      break;
 213:.\main.c      ****   }
 214:.\main.c      **** }
 215:.\main.c      **** 
 216:.\main.c      **** 
 217:.\main.c      **** void HandleScanDevices(CYBLE_GAPC_ADV_REPORT_T* advReport)
 218:.\main.c      **** {
 134              		.loc 1 218 0
 135              		.cfi_startproc
 136              	.LVL11:
 137 0000 F8B5     		push	{r3, r4, r5, r6, r7, lr}
 138              		.cfi_def_cfa_offset 24
 139              		.cfi_offset 3, -24
 140              		.cfi_offset 4, -20
 141              		.cfi_offset 5, -16
 142              		.cfi_offset 6, -12
 143              		.cfi_offset 7, -8
 144              		.cfi_offset 14, -4
 145              	.LVL12:
 219:.\main.c      **** 	//sprintf(buff,"Inside HandleScanDevices \n\r");
 220:.\main.c      **** //	UART_PutString(buff);
 221:.\main.c      **** 
 222:.\main.c      **** uint8 newDevice = TRUE;
 223:.\main.c      **** int i = 0;
 224:.\main.c      **** uint8 member = FALSE;
 225:.\main.c      **** 
 226:.\main.c      **** if(addedDevices < maxDevices)
 146              		.loc 1 226 0
 147 0002 334B     		ldr	r3, .L22
 148 0004 1D78     		ldrb	r5, [r3]
 149 0006 334B     		ldr	r3, .L22+4
 150 0008 5B78     		ldrb	r3, [r3, #1]
 151 000a 9D42     		cmp	r5, r3
 152 000c 0ED3     		bcc	.L18
 153 000e 5DE0     		b	.L10
 154              	.LVL13:
 155              	.L14:
 227:.\main.c      **** {
 228:.\main.c      ****   for(i = 0; i < SIZE; i++) {                    //checking if class member or not
 229:.\main.c      ****       if(FALSE == memcmp(permanentList[i], a, 0x06)){        
 156              		.loc 1 229 0
 157 0010 6300     		lsl	r3, r4, #1
 158 0012 1B19     		add	r3, r3, r4
 159 0014 5B00     		lsl	r3, r3, #1
 160 0016 2F48     		ldr	r0, .L22+4
 161 0018 0430     		add	r0, r0, #4
 162 001a C018     		add	r0, r0, r3
 163 001c 2E49     		ldr	r1, .L22+8
 164 001e 0622     		mov	r2, #6
 165 0020 FFF7FEFF 		bl	memcmp
 166              	.LVL14:
 167 0024 0028     		cmp	r0, #0
 168 0026 06D0     		beq	.L19
 228:.\main.c      ****       if(FALSE == memcmp(permanentList[i], a, 0x06)){        
 169              		.loc 1 228 0 discriminator 2
ARM GAS  C:\Users\Parthiv\AppData\Local\Temp\ccBVkRoX.s 			page 8


 170 0028 0134     		add	r4, r4, #1
 171              	.LVL15:
 172 002a 00E0     		b	.L11
 173              	.LVL16:
 174              	.L18:
 175 002c 0024     		mov	r4, #0
 176              	.LVL17:
 177              	.L11:
 228:.\main.c      ****       if(FALSE == memcmp(permanentList[i], a, 0x06)){        
 178              		.loc 1 228 0 is_stmt 0 discriminator 1
 179 002e 062C     		cmp	r4, #6
 180 0030 EEDD     		ble	.L14
 224:.\main.c      **** 
 181              		.loc 1 224 0 is_stmt 1
 182 0032 0026     		mov	r6, #0
 183 0034 00E0     		b	.L13
 184              	.L19:
 230:.\main.c      ****         member = TRUE;
 185              		.loc 1 230 0
 186 0036 0126     		mov	r6, #1
 187              	.L13:
 188              	.LVL18:
 231:.\main.c      ****       //  sprintf(buff,"Member is true \n\r");
 232:.\main.c      ****        // UART_PutString(buff);
 233:.\main.c      ****         break;
 234:.\main.c      ****       }
 235:.\main.c      ****   } 
 236:.\main.c      **** 	
 237:.\main.c      ****      
 238:.\main.c      ****     if(!member) {
 239:.\main.c      ****     //  sprintf(buff, "Not a valid Device from the List \r\n");
 240:.\main.c      ****     //  UART_PutString(buff);
 241:.\main.c      ****     }
 242:.\main.c      ****         if(member){          
 189              		.loc 1 242 0
 190 0038 002E     		cmp	r6, #0
 191 003a 14D1     		bne	.L20
 222:.\main.c      **** int i = 0;
 192              		.loc 1 222 0
 193 003c 0123     		mov	r3, #1
 194 003e 18E0     		b	.L16
 195              	.L17:
 243:.\main.c      ****        //   sprintf(buff,"here1\r\n");//check
 244:.\main.c      ****        //   UART_PutString(buff);  // checks if already marked present
 245:.\main.c      ****           for(i = 0; i < addedDevices; i++) {
 246:.\main.c      **** 									
 247:.\main.c      **** 
 248:.\main.c      **** 	           present_devices[i].data = &address_store[i][0];
 196              		.loc 1 248 0
 197 0040 6300     		lsl	r3, r4, #1
 198 0042 1B19     		add	r3, r3, r4
 199 0044 5B00     		lsl	r3, r3, #1
 200 0046 2548     		ldr	r0, .L22+12
 201 0048 1818     		add	r0, r3, r0
 202 004a A300     		lsl	r3, r4, #2
 203 004c 1B19     		add	r3, r3, r4
 204 004e 9B00     		lsl	r3, r3, #2
ARM GAS  C:\Users\Parthiv\AppData\Local\Temp\ccBVkRoX.s 			page 9


 205 0050 234A     		ldr	r2, .L22+16
 206 0052 D318     		add	r3, r2, r3
 207 0054 D860     		str	r0, [r3, #12]
 249:.\main.c      ****             if(FALSE == memcmp(present_devices[i].data, a, 0x06)) {
 208              		.loc 1 249 0
 209 0056 2049     		ldr	r1, .L22+8
 210 0058 0622     		mov	r2, #6
 211 005a FFF7FEFF 		bl	memcmp
 212              	.LVL19:
 213 005e 0028     		cmp	r0, #0
 214 0060 06D0     		beq	.L21
 245:.\main.c      **** 									
 215              		.loc 1 245 0 discriminator 2
 216 0062 0134     		add	r4, r4, #1
 217              	.LVL20:
 218 0064 00E0     		b	.L15
 219              	.L20:
 220 0066 0024     		mov	r4, #0
 221              	.LVL21:
 222              	.L15:
 245:.\main.c      **** 									
 223              		.loc 1 245 0 is_stmt 0 discriminator 1
 224 0068 A542     		cmp	r5, r4
 225 006a E9DC     		bgt	.L17
 222:.\main.c      **** int i = 0;
 226              		.loc 1 222 0 is_stmt 1
 227 006c 0123     		mov	r3, #1
 228 006e 00E0     		b	.L16
 229              	.L21:
 250:.\main.c      ****               newDevice = FALSE;
 230              		.loc 1 250 0
 231 0070 0023     		mov	r3, #0
 232              	.L16:
 233              	.LVL22:
 251:.\main.c      ****            //   sprintf(buff,"DEVICE NOT NEW \r\n");
 252:.\main.c      ****             //  UART_PutString(buff);
 253:.\main.c      ****             break;
 254:.\main.c      ****             } 
 255:.\main.c      **** 						//  sprintf(buff,"RUN \r\n");
 256:.\main.c      ****             //  UART_PutString(buff);
 257:.\main.c      ****           }
 258:.\main.c      ****             //sprintf(buff,"New Device\r\n");//check
 259:.\main.c      ****             //UART_PutString(buff);
 260:.\main.c      ****         }
 261:.\main.c      ****         if ((member == TRUE) && (newDevice == TRUE))
 234              		.loc 1 261 0
 235 0072 012E     		cmp	r6, #1
 236 0074 2AD1     		bne	.L10
 237              		.loc 1 261 0 is_stmt 0 discriminator 1
 238 0076 012B     		cmp	r3, #1
 239 0078 28D1     		bne	.L10
 262:.\main.c      ****         {
 263:.\main.c      ****         //  sprintf(buff,"here2\r\n");//check
 264:.\main.c      ****         //  UART_PutString(buff);  
 265:.\main.c      **** 						
 266:.\main.c      ****            
 267:.\main.c      ****           present_devices[addedDevices].data = &address_store[addedDevices][0];
ARM GAS  C:\Users\Parthiv\AppData\Local\Temp\ccBVkRoX.s 			page 10


 240              		.loc 1 267 0 is_stmt 1
 241 007a 6B00     		lsl	r3, r5, #1
 242              	.LVL23:
 243 007c 5B19     		add	r3, r3, r5
 244 007e 5B00     		lsl	r3, r3, #1
 245 0080 164A     		ldr	r2, .L22+12
 246 0082 9A18     		add	r2, r3, r2
 247 0084 164C     		ldr	r4, .L22+16
 248              	.LVL24:
 249 0086 AB00     		lsl	r3, r5, #2
 250 0088 5D19     		add	r5, r3, r5
 251 008a AD00     		lsl	r5, r5, #2
 252 008c 6519     		add	r5, r4, r5
 253 008e EA60     		str	r2, [r5, #12]
 268:.\main.c      ****             
 269:.\main.c      ****           present_devices[addedDevices].data[0] = a[0];
 254              		.loc 1 269 0
 255 0090 1148     		ldr	r0, .L22+8
 256 0092 0378     		ldrb	r3, [r0]
 257 0094 1370     		strb	r3, [r2]
 270:.\main.c      ****           present_devices[addedDevices].data[1] = a[1];
 258              		.loc 1 270 0
 259 0096 0E4D     		ldr	r5, .L22
 260 0098 2978     		ldrb	r1, [r5]
 261 009a 8A00     		lsl	r2, r1, #2
 262 009c 5318     		add	r3, r2, r1
 263 009e 9B00     		lsl	r3, r3, #2
 264 00a0 E318     		add	r3, r4, r3
 265 00a2 4678     		ldrb	r6, [r0, #1]
 266              	.LVL25:
 267 00a4 DF68     		ldr	r7, [r3, #12]
 268 00a6 7E70     		strb	r6, [r7, #1]
 271:.\main.c      ****           present_devices[addedDevices].data[2] = a[2];
 269              		.loc 1 271 0
 270 00a8 8678     		ldrb	r6, [r0, #2]
 271 00aa DF68     		ldr	r7, [r3, #12]
 272 00ac BE70     		strb	r6, [r7, #2]
 272:.\main.c      ****           present_devices[addedDevices].data[3] = a[3];
 273              		.loc 1 272 0
 274 00ae C678     		ldrb	r6, [r0, #3]
 275 00b0 DF68     		ldr	r7, [r3, #12]
 270:.\main.c      ****           present_devices[addedDevices].data[1] = a[1];
 276              		.loc 1 270 0
 277 00b2 0833     		add	r3, r3, #8
 278              		.loc 1 272 0
 279 00b4 FE70     		strb	r6, [r7, #3]
 273:.\main.c      ****           present_devices[addedDevices].data[4] = a[4];
 280              		.loc 1 273 0
 281 00b6 5B68     		ldr	r3, [r3, #4]
 282 00b8 0679     		ldrb	r6, [r0, #4]
 283 00ba 1E71     		strb	r6, [r3, #4]
 274:.\main.c      **** 					present_devices[addedDevices].data[5] = a[5];
 284              		.loc 1 274 0
 285 00bc 5318     		add	r3, r2, r1
 286 00be 9B00     		lsl	r3, r3, #2
 287 00c0 E318     		add	r3, r4, r3
 288 00c2 DB68     		ldr	r3, [r3, #12]
ARM GAS  C:\Users\Parthiv\AppData\Local\Temp\ccBVkRoX.s 			page 11


 289 00c4 4279     		ldrb	r2, [r0, #5]
 290 00c6 5A71     		strb	r2, [r3, #5]
 275:.\main.c      ****             
 276:.\main.c      ****             //sprintf(buff,"DEVICE ADDED \n\r");
 277:.\main.c      ****             //UART_PutString(buff);
 278:.\main.c      **** 					/*	sprintf(buff,"Device is: %2.2x%2.2x%2.2x%2.2x%2.2x%2.2x\r\n\n\n\n",present_devices[addedDev
 279:.\main.c      ****             UART_PutString(buff);*/
 280:.\main.c      **** 						/*for(i = 0; i<7;i++){
 281:.\main.c      **** 							a[i] = 0;
 282:.\main.c      **** 						}
 283:.\main.c      **** 						sprintf(buff,"a after reset ya kuch: %2.2x%2.2x%2.2x%2.2x%2.2x%2.2x\r\n",a[5u],a[4u],a[3u],a[
 284:.\main.c      ****             UART_PutString(buff);*/
 285:.\main.c      **** 						addedDevices++;
 291              		.loc 1 285 0
 292 00c8 0131     		add	r1, r1, #1
 293 00ca 2970     		strb	r1, [r5]
 294              	.L10:
 286:.\main.c      ****         }
 287:.\main.c      ****     }
 288:.\main.c      **** }
 295              		.loc 1 288 0
 296              		@ sp needed
 297 00cc F8BD     		pop	{r3, r4, r5, r6, r7, pc}
 298              	.L23:
 299 00ce C046     		.align	2
 300              	.L22:
 301 00d0 00000000 		.word	.LANCHOR1
 302 00d4 00000000 		.word	.LANCHOR0
 303 00d8 00000000 		.word	a
 304 00dc 00000000 		.word	address_store
 305 00e0 00000000 		.word	present_devices
 306              		.cfi_endproc
 307              	.LFE41:
 308              		.size	HandleScanDevices, .-HandleScanDevices
 309              		.section	.text.MembersPresent,"ax",%progbits
 310              		.align	2
 311              		.global	MembersPresent
 312              		.code	16
 313              		.thumb_func
 314              		.type	MembersPresent, %function
 315              	MembersPresent:
 316              	.LFB42:
 289:.\main.c      **** void MembersPresent()
 290:.\main.c      **** {
 317              		.loc 1 290 0
 318              		.cfi_startproc
 319 0000 F0B5     		push	{r4, r5, r6, r7, lr}
 320              		.cfi_def_cfa_offset 20
 321              		.cfi_offset 4, -20
 322              		.cfi_offset 5, -16
 323              		.cfi_offset 6, -12
 324              		.cfi_offset 7, -8
 325              		.cfi_offset 14, -4
 326 0002 85B0     		sub	sp, sp, #20
 327              		.cfi_def_cfa_offset 40
 328              	.LVL26:
 291:.\main.c      ****     int n,k = 0;
ARM GAS  C:\Users\Parthiv\AppData\Local\Temp\ccBVkRoX.s 			page 12


 292:.\main.c      ****    /* sprintf(buff,"Devices present for the Lecture are: ");
 293:.\main.c      ****     UART_PutString(buff);*/
 294:.\main.c      ****     RPI_Write(1u); 
 329              		.loc 1 294 0
 330 0004 0120     		mov	r0, #1
 331 0006 FFF7FEFF 		bl	RPI_Write
 332              	.LVL27:
 295:.\main.c      **** 	  CyDelay(100);
 333              		.loc 1 295 0
 334 000a 6420     		mov	r0, #100
 335 000c FFF7FEFF 		bl	CyDelay
 336              	.LVL28:
 296:.\main.c      ****     for (n = 0; n < addedDevices; n++){
 337              		.loc 1 296 0
 338 0010 0024     		mov	r4, #0
 339 0012 18E0     		b	.L25
 340              	.LVL29:
 341              	.L26:
 297:.\main.c      ****         sprintf(buff,"%2.2x%2.2x%2.2x%2.2x%2.2x%2.2x,a,\r\n",present_devices[n].data[5u],present_de
 342              		.loc 1 297 0 discriminator 3
 343 0014 A300     		lsl	r3, r4, #2
 344 0016 1B19     		add	r3, r3, r4
 345 0018 9B00     		lsl	r3, r3, #2
 346 001a 144A     		ldr	r2, .L27
 347 001c D318     		add	r3, r2, r3
 348 001e D968     		ldr	r1, [r3, #12]
 349 0020 4A79     		ldrb	r2, [r1, #5]
 350 0022 0B79     		ldrb	r3, [r1, #4]
 351 0024 CF78     		ldrb	r7, [r1, #3]
 352 0026 8E78     		ldrb	r6, [r1, #2]
 353 0028 4878     		ldrb	r0, [r1, #1]
 354 002a 0978     		ldrb	r1, [r1]
 355 002c 104D     		ldr	r5, .L27+4
 356 002e 0097     		str	r7, [sp]
 357 0030 0196     		str	r6, [sp, #4]
 358 0032 0290     		str	r0, [sp, #8]
 359 0034 0391     		str	r1, [sp, #12]
 360 0036 281C     		mov	r0, r5
 361 0038 0E49     		ldr	r1, .L27+8
 362 003a FFF7FEFF 		bl	sprintf
 363              	.LVL30:
 298:.\main.c      **** 	      UART_PutString(buff);
 364              		.loc 1 298 0 discriminator 3
 365 003e 281C     		mov	r0, r5
 366 0040 FFF7FEFF 		bl	UART_PutString
 367              	.LVL31:
 296:.\main.c      ****     for (n = 0; n < addedDevices; n++){
 368              		.loc 1 296 0 discriminator 3
 369 0044 0134     		add	r4, r4, #1
 370              	.LVL32:
 371              	.L25:
 296:.\main.c      ****     for (n = 0; n < addedDevices; n++){
 372              		.loc 1 296 0 is_stmt 0 discriminator 1
 373 0046 0C4B     		ldr	r3, .L27+12
 374 0048 1B78     		ldrb	r3, [r3]
 375 004a A342     		cmp	r3, r4
 376 004c E2DC     		bgt	.L26
ARM GAS  C:\Users\Parthiv\AppData\Local\Temp\ccBVkRoX.s 			page 13


 299:.\main.c      ****     }
 300:.\main.c      ****     RPI_Write(0u);
 377              		.loc 1 300 0 is_stmt 1
 378 004e 0020     		mov	r0, #0
 379 0050 FFF7FEFF 		bl	RPI_Write
 380              	.LVL33:
 301:.\main.c      ****       RPI2_Write(1u);
 381              		.loc 1 301 0
 382 0054 0120     		mov	r0, #1
 383 0056 FFF7FEFF 		bl	RPI2_Write
 384              	.LVL34:
 302:.\main.c      **** 	    RPI2_Write(0u);
 385              		.loc 1 302 0
 386 005a 0020     		mov	r0, #0
 387 005c FFF7FEFF 		bl	RPI2_Write
 388              	.LVL35:
 303:.\main.c      ****     attendanceMarked = TRUE;
 389              		.loc 1 303 0
 390 0060 0122     		mov	r2, #1
 391 0062 054B     		ldr	r3, .L27+12
 392 0064 5A70     		strb	r2, [r3, #1]
 304:.\main.c      **** }
 393              		.loc 1 304 0
 394 0066 05B0     		add	sp, sp, #20
 395              		@ sp needed
 396              	.LVL36:
 397 0068 F0BD     		pop	{r4, r5, r6, r7, pc}
 398              	.L28:
 399 006a C046     		.align	2
 400              	.L27:
 401 006c 00000000 		.word	present_devices
 402 0070 00000000 		.word	buff
 403 0074 00000000 		.word	.LC12
 404 0078 00000000 		.word	.LANCHOR1
 405              		.cfi_endproc
 406              	.LFE42:
 407              		.size	MembersPresent, .-MembersPresent
 408              		.section	.text.IasEventHandler,"ax",%progbits
 409              		.align	2
 410              		.global	IasEventHandler
 411              		.code	16
 412              		.thumb_func
 413              		.type	IasEventHandler, %function
 414              	IasEventHandler:
 415              	.LFB40:
 187:.\main.c      ****   
 416              		.loc 1 187 0
 417              		.cfi_startproc
 418              	.LVL37:
 419 0000 00B5     		push	{lr}
 420              		.cfi_def_cfa_offset 4
 421              		.cfi_offset 14, -4
 422 0002 83B0     		sub	sp, sp, #12
 423              		.cfi_def_cfa_offset 16
 190:.\main.c      ****   {
 424              		.loc 1 190 0
 425 0004 D823     		mov	r3, #216
ARM GAS  C:\Users\Parthiv\AppData\Local\Temp\ccBVkRoX.s 			page 14


 426 0006 5B00     		lsl	r3, r3, #1
 427 0008 9842     		cmp	r0, r3
 428 000a 05D1     		bne	.L30
 192:.\main.c      ****   }
 429              		.loc 1 192 0
 430 000c 0020     		mov	r0, #0
 431              	.LVL38:
 432 000e 0121     		mov	r1, #1
 433              	.LVL39:
 434 0010 6B46     		mov	r3, sp
 435 0012 DA1D     		add	r2, r3, #7
 436 0014 FFF7FEFF 		bl	CyBle_IassGetCharacteristicValue
 437              	.LVL40:
 438              	.L30:
 196:.\main.c      ****     case NO_ALERT:
 439              		.loc 1 196 0
 440 0018 6B46     		mov	r3, sp
 441 001a 0733     		add	r3, r3, #7
 442 001c 1B78     		ldrb	r3, [r3]
 443 001e 012B     		cmp	r3, #1
 444 0020 02D0     		beq	.L32
 445 0022 022B     		cmp	r3, #2
 446 0024 05D0     		beq	.L33
 447 0026 0AE0     		b	.L29
 448              	.L32:
 204:.\main.c      ****     break;
 449              		.loc 1 204 0
 450 0028 064B     		ldr	r3, .L34
 451 002a 1878     		ldrb	r0, [r3]
 452 002c FFF7FEFF 		bl	CyBle_GapDisconnect
 453              	.LVL41:
 205:.\main.c      **** 
 454              		.loc 1 205 0
 455 0030 05E0     		b	.L29
 456              	.L33:
 210:.\main.c      ****      CyBle_GapDisconnect(cyBle_connHandle.bdHandle);
 457              		.loc 1 210 0
 458 0032 FFF7FEFF 		bl	MembersPresent
 459              	.LVL42:
 211:.\main.c      ****      break;
 460              		.loc 1 211 0
 461 0036 034B     		ldr	r3, .L34
 462 0038 1878     		ldrb	r0, [r3]
 463 003a FFF7FEFF 		bl	CyBle_GapDisconnect
 464              	.LVL43:
 465              	.L29:
 214:.\main.c      **** 
 466              		.loc 1 214 0
 467 003e 03B0     		add	sp, sp, #12
 468              		@ sp needed
 469 0040 00BD     		pop	{pc}
 470              	.L35:
 471 0042 C046     		.align	2
 472              	.L34:
 473 0044 00000000 		.word	cyBle_connHandle
 474              		.cfi_endproc
 475              	.LFE40:
ARM GAS  C:\Users\Parthiv\AppData\Local\Temp\ccBVkRoX.s 			page 15


 476              		.size	IasEventHandler, .-IasEventHandler
 477              		.section	.text.resetval,"ax",%progbits
 478              		.align	2
 479              		.global	resetval
 480              		.code	16
 481              		.thumb_func
 482              		.type	resetval, %function
 483              	resetval:
 484              	.LFB43:
 305:.\main.c      **** 
 306:.\main.c      **** void resetval(){
 485              		.loc 1 306 0
 486              		.cfi_startproc
 487              	.LVL44:
 307:.\main.c      **** /*  sprintf(buff,"RESETTING VALS\n\r");
 308:.\main.c      ****   UART_PutString(buff);*/
 309:.\main.c      **** 	int i, j;
 310:.\main.c      ****   for(i = 0; i < addedDevices ; i++){  
 488              		.loc 1 310 0
 489 0000 0021     		mov	r1, #0
 490 0002 0EE0     		b	.L37
 491              	.LVL45:
 492              	.L38:
 311:.\main.c      **** 		for(j = 0; j < 7 ; j++){
 312:.\main.c      **** 	   	present_devices[i].data[j] = 0;
 493              		.loc 1 312 0 discriminator 3
 494 0004 8B00     		lsl	r3, r1, #2
 495 0006 5B18     		add	r3, r3, r1
 496 0008 9B00     		lsl	r3, r3, #2
 497 000a 0A48     		ldr	r0, .L41
 498 000c C318     		add	r3, r0, r3
 499 000e DB68     		ldr	r3, [r3, #12]
 500 0010 9B18     		add	r3, r3, r2
 501 0012 0020     		mov	r0, #0
 502 0014 1870     		strb	r0, [r3]
 311:.\main.c      **** 		for(j = 0; j < 7 ; j++){
 503              		.loc 1 311 0 discriminator 3
 504 0016 0132     		add	r2, r2, #1
 505              	.LVL46:
 506 0018 00E0     		b	.L39
 507              	.LVL47:
 508              	.L40:
 509 001a 0022     		mov	r2, #0
 510              	.L39:
 511              	.LVL48:
 311:.\main.c      **** 		for(j = 0; j < 7 ; j++){
 512              		.loc 1 311 0 is_stmt 0 discriminator 1
 513 001c 062A     		cmp	r2, #6
 514 001e F1DD     		ble	.L38
 310:.\main.c      **** 		for(j = 0; j < 7 ; j++){
 515              		.loc 1 310 0 is_stmt 1 discriminator 2
 516 0020 0131     		add	r1, r1, #1
 517              	.LVL49:
 518              	.L37:
 310:.\main.c      **** 		for(j = 0; j < 7 ; j++){
 519              		.loc 1 310 0 is_stmt 0 discriminator 1
 520 0022 054B     		ldr	r3, .L41+4
ARM GAS  C:\Users\Parthiv\AppData\Local\Temp\ccBVkRoX.s 			page 16


 521 0024 1B78     		ldrb	r3, [r3]
 522 0026 8B42     		cmp	r3, r1
 523 0028 F7DC     		bgt	.L40
 313:.\main.c      **** 		}
 314:.\main.c      ****  	 }	
 315:.\main.c      ****   addedDevices = 0;
 524              		.loc 1 315 0 is_stmt 1
 525 002a 0022     		mov	r2, #0
 526 002c 024B     		ldr	r3, .L41+4
 527 002e 1A70     		strb	r2, [r3]
 316:.\main.c      **** }
 528              		.loc 1 316 0
 529              		@ sp needed
 530 0030 7047     		bx	lr
 531              	.L42:
 532 0032 C046     		.align	2
 533              	.L41:
 534 0034 00000000 		.word	present_devices
 535 0038 00000000 		.word	.LANCHOR1
 536              		.cfi_endproc
 537              	.LFE43:
 538              		.size	resetval, .-resetval
 539              		.section	.text.BleStackHandler,"ax",%progbits
 540              		.align	2
 541              		.global	BleStackHandler
 542              		.code	16
 543              		.thumb_func
 544              		.type	BleStackHandler, %function
 545              	BleStackHandler:
 546              	.LFB38:
  78:.\main.c      **** 
 547              		.loc 1 78 0
 548              		.cfi_startproc
 549              	.LVL50:
 550 0000 30B5     		push	{r4, r5, lr}
 551              		.cfi_def_cfa_offset 12
 552              		.cfi_offset 4, -12
 553              		.cfi_offset 5, -8
 554              		.cfi_offset 14, -4
 555 0002 87B0     		sub	sp, sp, #28
 556              		.cfi_def_cfa_offset 40
  80:.\main.c      **** 
 557              		.loc 1 80 0
 558 0004 01AC     		add	r4, sp, #4
 559 0006 231C     		mov	r3, r4
 560 0008 0A1C     		mov	r2, r1
 561 000a 32CA     		ldmia	r2!, {r1, r4, r5}
 562 000c 32C3     		stmia	r3!, {r1, r4, r5}
 563              	.LVL51:
 564 000e 12CA     		ldmia	r2!, {r1, r4}
 565 0010 12C3     		stmia	r3!, {r1, r4}
 566              	.LVL52:
  82:.\main.c      **** 
 567              		.loc 1 82 0
 568 0012 2B28     		cmp	r0, #43
 569 0014 63D8     		bhi	.L43
 570 0016 8000     		lsl	r0, r0, #2
ARM GAS  C:\Users\Parthiv\AppData\Local\Temp\ccBVkRoX.s 			page 17


 571              	.LVL53:
 572 0018 324B     		ldr	r3, .L57
 573 001a 1B58     		ldr	r3, [r3, r0]
 574 001c 9F46     		mov	pc, r3
 575              		.section	.rodata
 576              		.align	2
 577              	.L46:
 578 0000 DE000000 		.word	.L43
 579 0004 DE000000 		.word	.L43
 580 0008 AC000000 		.word	.L45
 581 000c DE000000 		.word	.L43
 582 0010 DE000000 		.word	.L43
 583 0014 DE000000 		.word	.L43
 584 0018 DE000000 		.word	.L43
 585 001c DE000000 		.word	.L43
 586 0020 DE000000 		.word	.L43
 587 0024 DE000000 		.word	.L43
 588 0028 DE000000 		.word	.L43
 589 002c DE000000 		.word	.L43
 590 0030 DE000000 		.word	.L43
 591 0034 DE000000 		.word	.L43
 592 0038 DE000000 		.word	.L43
 593 003c DE000000 		.word	.L43
 594 0040 DE000000 		.word	.L43
 595 0044 DE000000 		.word	.L43
 596 0048 DE000000 		.word	.L43
 597 004c DE000000 		.word	.L43
 598 0050 DE000000 		.word	.L43
 599 0054 DE000000 		.word	.L43
 600 0058 DE000000 		.word	.L43
 601 005c DE000000 		.word	.L43
 602 0060 DE000000 		.word	.L43
 603 0064 DE000000 		.word	.L43
 604 0068 DE000000 		.word	.L43
 605 006c DE000000 		.word	.L43
 606 0070 DE000000 		.word	.L43
 607 0074 DE000000 		.word	.L43
 608 0078 DE000000 		.word	.L43
 609 007c DE000000 		.word	.L43
 610 0080 34000000 		.word	.L47
 611 0084 DE000000 		.word	.L43
 612 0088 DE000000 		.word	.L43
 613 008c DE000000 		.word	.L43
 614 0090 DE000000 		.word	.L43
 615 0094 DE000000 		.word	.L43
 616 0098 1E000000 		.word	.L48
 617 009c 5C000000 		.word	.L49
 618 00a0 6A000000 		.word	.L50
 619 00a4 DE000000 		.word	.L43
 620 00a8 DE000000 		.word	.L43
 621 00ac B8000000 		.word	.L51
 622              		.section	.text.BleStackHandler
 623              	.L48:
  89:.\main.c      ****           state = ADVERTISING;
 624              		.loc 1 89 0
 625 001e 324B     		ldr	r3, .L57+4
 626 0020 1B78     		ldrb	r3, [r3]
ARM GAS  C:\Users\Parthiv\AppData\Local\Temp\ccBVkRoX.s 			page 18


 627 0022 032B     		cmp	r3, #3
 628 0024 5BD1     		bne	.L43
  90:.\main.c      ****         /*  sprintf(buff,"ADVERTISING\n\r");
 629              		.loc 1 90 0
 630 0026 0422     		mov	r2, #4
 631              	.LVL54:
 632 0028 2F4B     		ldr	r3, .L57+4
 633 002a 1A70     		strb	r2, [r3]
  93:.\main.c      ****       }
 634              		.loc 1 93 0
 635 002c 0620     		mov	r0, #6
 636 002e FFF7FEFF 		bl	myreg_Write
 637              	.LVL55:
 638 0032 54E0     		b	.L43
 639              	.L47:
  99:.\main.c      ****      	/*  sprintf(buff,"INSIDE SCAN PROGRESS RESULT\r\n");
 640              		.loc 1 99 0
 641 0034 01AB     		add	r3, sp, #4
 642 0036 1B78     		ldrb	r3, [r3]
 643 0038 002B     		cmp	r3, #0
 644 003a 08D0     		beq	.L56
 645 003c 4FE0     		b	.L43
 646              	.LVL56:
 647              	.L53:
 648              	.LBB2:
 104:.\main.c      ****         }
 649              		.loc 1 104 0 discriminator 3
 650 003e 049A     		ldr	r2, [sp, #16]
 651 0040 D218     		add	r2, r2, r3
 652 0042 D179     		ldrb	r1, [r2, #7]
 653 0044 294A     		ldr	r2, .L57+8
 654 0046 D154     		strb	r1, [r2, r3]
 103:.\main.c      ****           a[val] = advreport.data[val+7u];
 655              		.loc 1 103 0 discriminator 3
 656 0048 0133     		add	r3, r3, #1
 657              	.LVL57:
 658 004a DBB2     		uxtb	r3, r3
 659              	.LVL58:
 660 004c 00E0     		b	.L52
 661              	.LVL59:
 662              	.L56:
 663              	.LBE2:
 664 004e 0023     		mov	r3, #0
 665              	.L52:
 666              	.LVL60:
 667              	.LBB3:
 103:.\main.c      ****           a[val] = advreport.data[val+7u];
 668              		.loc 1 103 0 is_stmt 0 discriminator 1
 669 0050 052B     		cmp	r3, #5
 670 0052 F4D9     		bls	.L53
 111:.\main.c      ****       }
 671              		.loc 1 111 0 is_stmt 1
 672 0054 01A8     		add	r0, sp, #4
 673 0056 FFF7FEFF 		bl	HandleScanDevices
 674              	.LVL61:
 675              	.LBE3:
 676 005a 40E0     		b	.L43
ARM GAS  C:\Users\Parthiv\AppData\Local\Temp\ccBVkRoX.s 			page 19


 677              	.L49:
 119:.\main.c      ****       myreg_Write(0x1);              // Purple is ON for indicating pairing
 678              		.loc 1 119 0
 679 005c 0522     		mov	r2, #5
 680 005e 224B     		ldr	r3, .L57+4
 681 0060 1A70     		strb	r2, [r3]
 120:.\main.c      ****      /* sprintf(buff,"Connected\n\r");
 682              		.loc 1 120 0
 683 0062 0120     		mov	r0, #1
 684 0064 FFF7FEFF 		bl	myreg_Write
 685              	.LVL62:
 123:.\main.c      **** 
 686              		.loc 1 123 0
 687 0068 39E0     		b	.L43
 688              	.L50:
 127:.\main.c      ****       state = DISCONNECTED;
 689              		.loc 1 127 0
 690 006a 1F4B     		ldr	r3, .L57+4
 691 006c 1B78     		ldrb	r3, [r3]
 692 006e 052B     		cmp	r3, #5
 693 0070 0DD1     		bne	.L54
 127:.\main.c      ****       state = DISCONNECTED;
 694              		.loc 1 127 0 is_stmt 0 discriminator 1
 695 0072 1F4A     		ldr	r2, .L57+12
 696 0074 5278     		ldrb	r2, [r2, #1]
 697 0076 002A     		cmp	r2, #0
 698 0078 09D1     		bne	.L54
 128:.\main.c      ****       CyBle_GapcStartScan(CYBLE_SCANNING_FAST);
 699              		.loc 1 128 0 is_stmt 1
 700 007a 0332     		add	r2, r2, #3
 701 007c 1A4B     		ldr	r3, .L57+4
 702 007e 1A70     		strb	r2, [r3]
 129:.\main.c      ****       myreg_Write(0x5);   // BLUE is ON for indicating the SCANNING function
 703              		.loc 1 129 0
 704 0080 0020     		mov	r0, #0
 705 0082 FFF7FEFF 		bl	CyBle_GapcStartScan
 706              	.LVL63:
 130:.\main.c      ****    /*   sprintf(buff,"Disconnected1\n\r");
 707              		.loc 1 130 0
 708 0086 0520     		mov	r0, #5
 709 0088 FFF7FEFF 		bl	myreg_Write
 710              	.LVL64:
 711 008c 27E0     		b	.L43
 712              	.L54:
 134:.\main.c      ****       state = DISCONNECTED;
 713              		.loc 1 134 0
 714 008e 052B     		cmp	r3, #5
 715 0090 25D1     		bne	.L43
 134:.\main.c      ****       state = DISCONNECTED;
 716              		.loc 1 134 0 is_stmt 0 discriminator 1
 717 0092 174B     		ldr	r3, .L57+12
 718 0094 5B78     		ldrb	r3, [r3, #1]
 719 0096 002B     		cmp	r3, #0
 720 0098 21D0     		beq	.L43
 135:.\main.c      ****       attendanceMarked = FALSE;
 721              		.loc 1 135 0 is_stmt 1
 722 009a 0322     		mov	r2, #3
ARM GAS  C:\Users\Parthiv\AppData\Local\Temp\ccBVkRoX.s 			page 20


 723 009c 124B     		ldr	r3, .L57+4
 724 009e 1A70     		strb	r2, [r3]
 136:.\main.c      ****      
 725              		.loc 1 136 0
 726 00a0 0022     		mov	r2, #0
 727 00a2 134B     		ldr	r3, .L57+12
 728 00a4 5A70     		strb	r2, [r3, #1]
 138:.\main.c      ****     /*  sprintf(buff,"Disconnected2\n\r");
 729              		.loc 1 138 0
 730 00a6 FFF7FEFF 		bl	resetval
 731              	.LVL65:
 732 00aa 18E0     		b	.L43
 733              	.L45:
 146:.\main.c      ****       //even start scan should be inititated
 734              		.loc 1 146 0
 735 00ac FFF7FEFF 		bl	CyBle_GappStopAdvertisement
 736              	.LVL66:
 149:.\main.c      ****   /*    sprintf(buff,"State     :%u \n\r",state);
 737              		.loc 1 149 0
 738 00b0 0320     		mov	r0, #3
 739 00b2 FFF7FEFF 		bl	myreg_Write
 740              	.LVL67:
 152:.\main.c      **** 
 741              		.loc 1 152 0
 742 00b6 12E0     		b	.L43
 743              	.L51:
 156:.\main.c      ****     /*    sprintf(buff,"WAITING FOR TEACHER TO END LECTURE\r\n");
 744              		.loc 1 156 0
 745 00b8 0B4B     		ldr	r3, .L57+4
 746 00ba 1B78     		ldrb	r3, [r3]
 747 00bc 062B     		cmp	r3, #6
 748 00be 06D1     		bne	.L55
 159:.\main.c      ****         CyBle_GappStartAdvertisement(CYBLE_ADVERTISING_FAST);
 749              		.loc 1 159 0
 750 00c0 0322     		mov	r2, #3
 751 00c2 094B     		ldr	r3, .L57+4
 752 00c4 1A70     		strb	r2, [r3]
 160:.\main.c      ****       }
 753              		.loc 1 160 0
 754 00c6 0020     		mov	r0, #0
 755 00c8 FFF7FEFF 		bl	CyBle_GappStartAdvertisement
 756              	.LVL68:
 757 00cc 07E0     		b	.L43
 758              	.L55:
 162:.\main.c      ****         state = SCANNING;
 759              		.loc 1 162 0
 760 00ce 032B     		cmp	r3, #3
 761 00d0 05D1     		bne	.L43
 163:.\main.c      ****         myreg_Write(0x5);
 762              		.loc 1 163 0
 763 00d2 0622     		mov	r2, #6
 764 00d4 044B     		ldr	r3, .L57+4
 765 00d6 1A70     		strb	r2, [r3]
 164:.\main.c      ****       }
 766              		.loc 1 164 0
 767 00d8 0520     		mov	r0, #5
 768 00da FFF7FEFF 		bl	myreg_Write
ARM GAS  C:\Users\Parthiv\AppData\Local\Temp\ccBVkRoX.s 			page 21


 769              	.LVL69:
 770              	.L43:
 168:.\main.c      **** 
 771              		.loc 1 168 0
 772 00de 07B0     		add	sp, sp, #28
 773              		@ sp needed
 774 00e0 30BD     		pop	{r4, r5, pc}
 775              	.L58:
 776 00e2 C046     		.align	2
 777              	.L57:
 778 00e4 00000000 		.word	.L46
 779 00e8 00000000 		.word	.LANCHOR0
 780 00ec 00000000 		.word	a
 781 00f0 00000000 		.word	.LANCHOR1
 782              		.cfi_endproc
 783              	.LFE38:
 784              		.size	BleStackHandler, .-BleStackHandler
 785              		.global	permanentList
 786              		.comm	present_devices,140,4
 787              		.comm	buff,100,4
 788              		.comm	a,31,4
 789              		.comm	address_store,60,4
 790              		.global	maxDevices
 791              		.global	addedDevices
 792              		.global	attendanceMarked
 793              		.global	state
 794              		.data
 795              		.align	2
 796              		.set	.LANCHOR0,. + 0
 797              		.type	state, %object
 798              		.size	state, 1
 799              	state:
 800 0000 03       		.byte	3
 801              		.type	maxDevices, %object
 802              		.size	maxDevices, 1
 803              	maxDevices:
 804 0001 07       		.byte	7
 805 0002 0000     		.space	2
 806              		.type	permanentList, %object
 807              		.size	permanentList, 42
 808              	permanentList:
 809 0004 39       		.byte	57
 810 0005 00       		.byte	0
 811 0006 13       		.byte	19
 812 0007 01       		.byte	1
 813 0008 00       		.byte	0
 814 0009 06       		.byte	6
 815 000a 04       		.byte	4
 816 000b 00       		.byte	0
 817 000c 13       		.byte	19
 818 000d 01       		.byte	1
 819 000e 00       		.byte	0
 820 000f 06       		.byte	6
 821 0010 DC       		.byte	-36
 822 0011 E8       		.byte	-24
 823 0012 38       		.byte	56
 824 0013 9D       		.byte	-99
ARM GAS  C:\Users\Parthiv\AppData\Local\Temp\ccBVkRoX.s 			page 22


 825 0014 09       		.byte	9
 826 0015 9A       		.byte	-102
 827 0016 00000000 		.space	24
 827      00000000 
 827      00000000 
 827      00000000 
 827      00000000 
 828 002e 0000     		.section	.rodata.str1.4,"aMS",%progbits,1
 829              		.align	2
 830              	.LC12:
 831 0000 25322E32 		.ascii	"%2.2x%2.2x%2.2x%2.2x%2.2x%2.2x,a,\015\012\000"
 831      7825322E 
 831      32782532 
 831      2E327825 
 831      322E3278 
 832              		.bss
 833              		.set	.LANCHOR1,. + 0
 834              		.type	addedDevices, %object
 835              		.size	addedDevices, 1
 836              	addedDevices:
 837 0000 00       		.space	1
 838              		.type	attendanceMarked, %object
 839              		.size	attendanceMarked, 1
 840              	attendanceMarked:
 841 0001 00       		.space	1
 842              		.text
 843              	.Letext0:
 844              		.file 2 "Generated_Source\\PSoC4/cytypes.h"
 845              		.file 3 "c:\\program files (x86)\\cypress\\psoc creator\\3.3\\psoc creator\\import\\gnu\\arm\\4.9.
 846              		.file 4 "Generated_Source\\PSoC4/BLE_Stack.h"
 847              		.file 5 "Generated_Source\\PSoC4/BLE_StackGap.h"
 848              		.file 6 "Generated_Source\\PSoC4/BLE_StackGatt.h"
 849              		.file 7 "Generated_Source\\PSoC4/BLE.h"
 850              		.file 8 "Generated_Source\\PSoC4/BLE_ias.h"
 851              		.file 9 "Generated_Source\\PSoC4/BLE_eventHandler.h"
 852              		.file 10 "Generated_Source\\PSoC4/myreg.h"
 853              		.file 11 "Generated_Source\\PSoC4/CyLib.h"
 854              		.file 12 "Generated_Source\\PSoC4/SWInt.h"
 855              		.file 13 "Generated_Source\\PSoC4/UART.h"
 856              		.file 14 "c:\\program files (x86)\\cypress\\psoc creator\\3.3\\psoc creator\\import\\gnu\\arm\\4.9
 857              		.file 15 "Generated_Source\\PSoC4/RPI.h"
 858              		.file 16 "c:\\program files (x86)\\cypress\\psoc creator\\3.3\\psoc creator\\import\\gnu\\arm\\4.9
 859              		.file 17 "Generated_Source\\PSoC4/RPI2.h"
 860              		.file 18 "Generated_Source\\PSoC4/SW.h"